(ievotankclasses
robot
p0
(dp1
S'search'
p2
(lp3
I6
aI6
aI6
aI0
aI0
aI0
aI0
aI0
asS'name'
p4
VASS
p5
sS'getammo'
p6
(lp7
I0
aI0
aI0
aI0
aI0
aI0
aI0
aI0
asS'getfuel'
p8
(lp9
I0
aI0
aI0
aI0
aI0
aI0
aI0
aI0
asS'getarmor'
p10
(lp11
I0
aI0
aI0
aI0
aI0
aI0
aI0
aI0
asS'hitstilmating'
p12
I5
sS'kill'
p13
(lp14
I0
aI0
aI0
aI0
aI0
aI0
aI0
aI0
asS'minarmor'
p15
I6
sS'minfuel'
p16
I6
sS'minammo'
p17
I6
sb.