(ievotankclasses
robot
p0
(dp1
S'search'
p2
(lp3
I6
aI6
aI6
aI0
aI0
aI0
aI0
aI0
asS'getammo'
p4
(lp5
I0
aI0
aI0
aI0
aI0
aI0
aI0
aI0
asS'name'
p6
VASS
p7
sS'getfuel'
p8
(lp9
I0
aI0
aI0
aI0
aI0
aI0
aI0
aI0
asS'minfuel'
p10
I6
sS'getarmor'
p11
(lp12
I0
aI0
aI0
aI0
aI0
aI0
aI0
aI0
asS'hitstilmating'
p13
I5
sS'kill'
p14
(lp15
I0
aI0
aI0
aI0
aI0
aI6
aI6
aI6
asS'minarmor'
p16
I6
sS'minammo'
p17
I6
sb.