(ievotankclasses
robot
p0
(dp1
S'search'
p2
(lp3
I8
aI3
aI9
aI8
aI9
aI8
aI9
aI9
asS'name'
p4
VManual
p5
sS'getammo'
p6
(lp7
I7
aI3
aI8
aI3
aI3
aI3
aI7
aI3
asS'getfuel'
p8
(lp9
I6
aI3
aI8
aI9
aI6
aI0
aI0
aI0
asS'getarmor'
p10
(lp11
I5
aI3
aI3
aI3
aI8
aI9
aI9
aI5
asS'hitstilmating'
p12
I5
sS'mindist'
p13
I100
sS'kill'
p14
(lp15
I8
aI9
aI3
aI3
aI3
aI4
aI4
aI4
asS'minarmor'
p16
I50
sS'minfuel'
p17
I2500
sS'minammo'
p18
I10
sb.