(ievotanklevels
level
p0
(dp1
S'playerx'
p2
I316
sS'playery'
p3
I214
sS'music'
p4
S'sounds/crisis.ogg'
p5
sS'playerrotate'
p6
I4
sS'rooms'
p7
(lp8
(ievotanklevels
room
p9
(dp10
S'background'
p11
S'images/bgcruciform.png'
p12
sS'pickups'
p13
(lp14
sS'obstacles'
p15
(lp16
(ievotankclasses
obstacle
p17
(dp18
S'y'
p19
I0
sS'x'
p20
I218
sS'obstacletypenum'
p21
I2
sba(ievotankclasses
obstacle
p22
(dp23
g19
I0
sg20
I154
sg21
I2
sba(ievotankclasses
obstacle
p24
(dp25
g19
I0
sg20
I90
sg21
I2
sba(ievotankclasses
obstacle
p26
(dp27
g19
I0
sg20
I26
sg21
I2
sba(ievotankclasses
obstacle
p28
(dp29
g19
I0
sg20
I578
sg21
I2
sba(ievotankclasses
obstacle
p30
(dp31
g19
I0
sg20
I514
sg21
I2
sba(ievotankclasses
obstacle
p32
(dp33
g19
I0
sg20
I450
sg21
I2
sba(ievotankclasses
obstacle
p34
(dp35
g19
I0
sg20
I386
sg21
I2
sba(ievotankclasses
obstacle
p36
(dp37
g19
I147
sg20
I0
sg21
I2
sba(ievotankclasses
obstacle
p38
(dp39
g19
I83
sg20
I0
sg21
I2
sba(ievotankclasses
obstacle
p40
(dp41
g19
I19
sg20
I0
sg21
I2
sba(ievotankclasses
obstacle
p42
(dp43
g19
I136
sg20
I577
sg21
I2
sba(ievotankclasses
obstacle
p44
(dp45
g19
I72
sg20
I577
sg21
I2
sba(ievotankclasses
obstacle
p46
(dp47
g19
I8
sg20
I577
sg21
I2
sba(ievotankclasses
obstacle
p48
(dp49
g19
I417
sg20
I1
sg21
I2
sba(ievotankclasses
obstacle
p50
(dp51
g19
I353
sg20
I1
sg21
I2
sba(ievotankclasses
obstacle
p52
(dp53
g19
I289
sg20
I1
sg21
I2
sba(ievotankclasses
obstacle
p54
(dp55
g19
I421
sg20
I577
sg21
I2
sba(ievotankclasses
obstacle
p56
(dp57
g19
I357
sg20
I577
sg21
I2
sba(ievotankclasses
obstacle
p58
(dp59
g19
I293
sg20
I577
sg21
I2
sba(ievotankclasses
obstacle
p60
(dp61
g19
I418
sg20
I580
sg21
I2
sba(ievotankclasses
obstacle
p62
(dp63
g19
I418
sg20
I516
sg21
I2
sba(ievotankclasses
obstacle
p64
(dp65
g19
I418
sg20
I452
sg21
I2
sba(ievotankclasses
obstacle
p66
(dp67
g19
I418
sg20
I388
sg21
I2
sba(ievotankclasses
obstacle
p68
(dp69
g19
I418
sg20
I324
sg21
I2
sba(ievotankclasses
obstacle
p70
(dp71
g19
I418
sg20
I260
sg21
I2
sba(ievotankclasses
obstacle
p72
(dp73
g19
I418
sg20
I196
sg21
I2
sba(ievotankclasses
obstacle
p74
(dp75
g19
I418
sg20
I132
sg21
I2
sba(ievotankclasses
obstacle
p76
(dp77
g19
I418
sg20
I68
sg21
I2
sba(ievotankclasses
obstacle
p78
(dp79
g19
I418
sg20
I4
sg21
I2
sba(ievotankclasses
obstacle
p80
(dp81
g19
I264
sg20
I575
sg21
I2
sS'obstacletype'
p82
S'wall'
p83
sba(ievotankclasses
obstacle
p84
(dp85
g19
I0
sg20
I347
sg21
I2
sg82
g83
sba(ievotankclasses
obstacle
p86
(dp87
g19
I0
sg20
I1
sg21
I2
sg82
g83
sba(ievotankclasses
obstacle
p88
(dp89
g19
I275
sg20
I0
sg21
I2
sg82
g83
sbasS'robots'
p90
(lp91
sg6
I0
sS'bullets'
p92
(lp93
sS'doors'
p94
(lp95
(ievotankclasses
door
p96
(dp97
S'rotate'
p98
I1
sS'y'
p99
I200
sS'x'
p100
I576
sS'to_room'
p101
I3
sS'to_x'
p102
I0
sS'to_y'
p103
I200
sba(ievotankclasses
door
p104
(dp105
g98
I3
sg99
I211
sg100
I0
sg101
I2
sg102
I576
sg103
I211
sba(ievotankclasses
door
p106
(dp107
S'rotate'
p108
I0
sS'y'
p109
I0
sS'x'
p110
I282
sS'to_room'
p111
I1
sS'to_x'
p112
I282
sS'to_y'
p113
I416
sbasg2
I0
sg3
I0
sba(ievotanklevels
room
p114
(dp115
g11
S'images/bgcruciform.png'
p116
sg13
(lp117
(ievotankclasses
pickup
p118
(dp119
S'y'
p120
I109
sS'pickuptypenum'
p121
I0
sS'pickuptype'
p122
S'armor'
p123
sS'x'
p124
I377
sba(ievotankclasses
pickup
p125
(dp126
g120
I365
sg121
I2
sg122
S'ammo'
p127
sg124
I102
sbasg15
(lp128
(ievotankclasses
obstacle
p129
(dp130
S'y'
p131
I1
sS'x'
p132
I217
sS'obstacletypenum'
p133
I2
sba(ievotankclasses
obstacle
p134
(dp135
g131
I1
sg132
I153
sg133
I2
sba(ievotankclasses
obstacle
p136
(dp137
g131
I1
sg132
I89
sg133
I2
sba(ievotankclasses
obstacle
p138
(dp139
g131
I1
sg132
I25
sg133
I2
sba(ievotankclasses
obstacle
p140
(dp141
g131
I0
sg132
I576
sg133
I2
sba(ievotankclasses
obstacle
p142
(dp143
g131
I0
sg132
I512
sg133
I2
sba(ievotankclasses
obstacle
p144
(dp145
g131
I0
sg132
I448
sg133
I2
sba(ievotankclasses
obstacle
p146
(dp147
g131
I0
sg132
I384
sg133
I2
sba(ievotankclasses
obstacle
p148
(dp149
g131
I416
sg132
I219
sg133
I2
sba(ievotankclasses
obstacle
p150
(dp151
g131
I416
sg132
I155
sg133
I2
sba(ievotankclasses
obstacle
p152
(dp153
g131
I416
sg132
I91
sg133
I2
sba(ievotankclasses
obstacle
p154
(dp155
g131
I416
sg132
I27
sg133
I2
sba(ievotankclasses
obstacle
p156
(dp157
g131
I421
sg132
I576
sg133
I2
sba(ievotankclasses
obstacle
p158
(dp159
g131
I421
sg132
I512
sg133
I2
sba(ievotankclasses
obstacle
p160
(dp161
g131
I421
sg132
I448
sg133
I2
sba(ievotankclasses
obstacle
p162
(dp163
g131
I421
sg132
I384
sg133
I2
sba(ievotankclasses
obstacle
p164
(dp165
g131
I417
sg132
I0
sg133
I2
sba(ievotankclasses
obstacle
p166
(dp167
g131
I353
sg132
I0
sg133
I2
sba(ievotankclasses
obstacle
p168
(dp169
g131
I289
sg132
I0
sg133
I2
sba(ievotankclasses
obstacle
p170
(dp171
g131
I225
sg132
I0
sg133
I2
sba(ievotankclasses
obstacle
p172
(dp173
g131
I161
sg132
I0
sg133
I2
sba(ievotankclasses
obstacle
p174
(dp175
g131
I97
sg132
I0
sg133
I2
sba(ievotankclasses
obstacle
p176
(dp177
g131
I33
sg132
I0
sg133
I2
sba(ievotankclasses
obstacle
p178
(dp179
g131
I421
sg132
I579
sg133
I2
sba(ievotankclasses
obstacle
p180
(dp181
g131
I485
sg132
I579
sg133
I2
sba(ievotankclasses
obstacle
p182
(dp183
g131
I549
sg132
I579
sg133
I2
sba(ievotankclasses
obstacle
p184
(dp185
g131
I613
sg132
I579
sg133
I2
sba(ievotankclasses
obstacle
p186
(dp187
g131
I677
sg132
I579
sg133
I2
sba(ievotankclasses
obstacle
p188
(dp189
g131
I741
sg132
I579
sg133
I2
sba(ievotankclasses
obstacle
p190
(dp191
g131
I421
sg132
I578
sg133
I2
sba(ievotankclasses
obstacle
p192
(dp193
g131
I357
sg132
I578
sg133
I2
sba(ievotankclasses
obstacle
p194
(dp195
g131
I293
sg132
I578
sg133
I2
sba(ievotankclasses
obstacle
p196
(dp197
g131
I229
sg132
I578
sg133
I2
sba(ievotankclasses
obstacle
p198
(dp199
g131
I165
sg132
I578
sg133
I2
sba(ievotankclasses
obstacle
p200
(dp201
g131
I101
sg132
I578
sg133
I2
sba(ievotankclasses
obstacle
p202
(dp203
g131
I37
sg132
I578
sg133
I2
sba(ievotankclasses
obstacle
p204
(dp205
g131
I0
sg132
I346
sg133
I2
sS'obstacletype'
p206
S'wall'
p207
sba(ievotankclasses
obstacle
p208
(dp209
g131
I418
sg132
I346
sg133
I2
sg206
g207
sba(ievotankclasses
obstacle
p210
(dp211
g131
I0
sg132
I1
sg133
I2
sg206
g207
sbasg90
(lp212
(ievotankclasses
robot
p213
(dp214
S'y'
p215
I283
sS'minfuel'
p216
I1832
sS'ip'
p217
I1
sS'hits'
p218
I5
sS'dead'
p219
I0
sS'getammo'
p220
(lp221
I4
aI4
aI3
aI3
aI6
aI6
aI8
aI4
asS'heat'
p222
I748
sS'mindist'
p223
I253
sS'kill'
p224
(lp225
I9
aI3
aI2
aI4
aI4
aI4
aI2
aI5
asS'x'
p226
I121
sS'minammo'
p227
I55
sS'search'
p228
(lp229
I5
aI1
aI7
aI5
aI3
aI9
aI5
aI2
asS'rotate'
p230
I2
sS'name'
p231
S'EAT'
p232
sS'getarmor'
p233
(lp234
I3
aI2
aI3
aI5
aI2
aI8
aI8
aI5
asS'armor'
p235
F94.0
sS'getfuel'
p236
(lp237
I6
aI8
aI1
aI4
aI1
aI0
aI1
aI0
asS'minarmor'
p238
F58.0
sS'state'
p239
I2
sS'fuel'
p240
F1591.0
sS'velocity'
p241
I-3
sS'ammo'
p242
I54
sS'op'
p243
I6
sbasg6
I0
sg92
(lp244
sg94
(lp245
(ievotankclasses
door
p246
(dp247
S'rotate'
p248
I2
sS'y'
p249
I480
sS'x'
p250
I326
sS'to_room'
p251
I0
sS'to_x'
p252
I314
sS'to_y'
p253
I0
sba(ievotankclasses
door
p254
(dp255
g108
I2
sg109
I416
sg110
I282
sg111
I0
sg112
I282
sg113
I0
sba(ievotankclasses
door
p256
(dp257
g108
I0
sg109
I0
sg110
I281
sg111
I5
sg112
I281
sg113
I416
sbasg2
I0
sg3
I0
sba(ievotanklevels
room
p258
(dp259
g11
S'images/bgcruciform.png'
p260
sg13
(lp261
(ievotankclasses
pickup
p262
(dp263
S'y'
p264
I229
sS'pickuptypenum'
p265
I1
sS'pickuptype'
p266
S'fuel'
p267
sS'x'
p268
I307
sbasg15
(lp269
(ievotankclasses
obstacle
p270
(dp271
g131
I144
sg132
I1
sg133
I2
sba(ievotankclasses
obstacle
p272
(dp273
g131
I80
sg132
I1
sg133
I2
sba(ievotankclasses
obstacle
p274
(dp275
g131
I16
sg132
I1
sg133
I2
sba(ievotankclasses
obstacle
p276
(dp277
g131
I416
sg132
I0
sg133
I2
sba(ievotankclasses
obstacle
p278
(dp279
g131
I352
sg132
I0
sg133
I2
sba(ievotankclasses
obstacle
p280
(dp281
g131
I288
sg132
I0
sg133
I2
sba(ievotankclasses
obstacle
p282
(dp283
g131
I147
sg132
I576
sg133
I2
sba(ievotankclasses
obstacle
p284
(dp285
g131
I83
sg132
I576
sg133
I2
sba(ievotankclasses
obstacle
p286
(dp287
g131
I19
sg132
I576
sg133
I2
sba(ievotankclasses
obstacle
p288
(dp289
g131
I419
sg132
I576
sg133
I2
sba(ievotankclasses
obstacle
p290
(dp291
g131
I355
sg132
I576
sg133
I2
sba(ievotankclasses
obstacle
p292
(dp293
g131
I291
sg132
I576
sg133
I2
sba(ievotankclasses
obstacle
p294
(dp295
g131
I0
sg132
I576
sg133
I2
sba(ievotankclasses
obstacle
p296
(dp297
g131
I0
sg132
I512
sg133
I2
sba(ievotankclasses
obstacle
p298
(dp299
g131
I0
sg132
I448
sg133
I2
sba(ievotankclasses
obstacle
p300
(dp301
g131
I0
sg132
I384
sg133
I2
sba(ievotankclasses
obstacle
p302
(dp303
g131
I0
sg132
I320
sg133
I2
sba(ievotankclasses
obstacle
p304
(dp305
g131
I0
sg132
I256
sg133
I2
sba(ievotankclasses
obstacle
p306
(dp307
g131
I0
sg132
I192
sg133
I2
sba(ievotankclasses
obstacle
p308
(dp309
g131
I0
sg132
I128
sg133
I2
sba(ievotankclasses
obstacle
p310
(dp311
g131
I0
sg132
I64
sg133
I2
sba(ievotankclasses
obstacle
p312
(dp313
g131
I426
sg132
I575
sg133
I2
sba(ievotankclasses
obstacle
p314
(dp315
g131
I426
sg132
I511
sg133
I2
sba(ievotankclasses
obstacle
p316
(dp317
g131
I426
sg132
I447
sg133
I2
sba(ievotankclasses
obstacle
p318
(dp319
g131
I426
sg132
I383
sg133
I2
sba(ievotankclasses
obstacle
p320
(dp321
g131
I426
sg132
I319
sg133
I2
sba(ievotankclasses
obstacle
p322
(dp323
g131
I426
sg132
I255
sg133
I2
sba(ievotankclasses
obstacle
p324
(dp325
g131
I426
sg132
I191
sg133
I2
sba(ievotankclasses
obstacle
p326
(dp327
g131
I426
sg132
I127
sg133
I2
sba(ievotankclasses
obstacle
p328
(dp329
g131
I426
sg132
I63
sg133
I2
sba(ievotankclasses
obstacle
p330
(dp331
g131
I272
sg132
I0
sg133
I2
sg206
g207
sba(ievotankclasses
obstacle
p332
(dp333
g131
I0
sg132
I3
sg133
I2
sg206
g207
sba(ievotankclasses
obstacle
p334
(dp335
g131
I275
sg132
I576
sg133
I2
sg206
g207
sbasg90
(lp336
sg6
I0
sg92
(lp337
sg94
(lp338
(ievotankclasses
door
p339
(dp340
g248
I1
sg249
I299
sg250
I640
sg251
I0
sg252
I0
sg253
I181
sba(ievotankclasses
door
p341
(dp342
g98
I1
sg99
I211
sg100
I576
sg101
I0
sg102
I0
sg103
I211
sba(ievotankclasses
door
p343
(dp344
g98
I3
sg99
I208
sg100
I0
sg101
I17
sg102
I576
sg103
I208
sbasg2
I0
sg3
I0
sba(ievotanklevels
room
p345
(dp346
g11
S'images/bgcruciform.png'
p347
sg13
(lp348
(ievotankclasses
pickup
p349
(dp350
g120
I133
sg121
I1
sg122
S'fuel'
p351
sg124
I526
sba(ievotankclasses
pickup
p352
(dp353
g120
I245
sg121
I1
sg122
g351
sg124
I530
sba(ievotankclasses
pickup
p354
(dp355
g120
I370
sg121
I1
sg122
g351
sg124
I543
sbasg15
(lp356
(ievotankclasses
obstacle
p357
(dp358
g131
I137
sg132
I0
sg133
I2
sba(ievotankclasses
obstacle
p359
(dp360
g131
I73
sg132
I0
sg133
I2
sba(ievotankclasses
obstacle
p361
(dp362
g131
I9
sg132
I0
sg133
I2
sba(ievotankclasses
obstacle
p363
(dp364
g131
I417
sg132
I0
sg133
I2
sba(ievotankclasses
obstacle
p365
(dp366
g131
I353
sg132
I0
sg133
I2
sba(ievotankclasses
obstacle
p367
(dp368
g131
I289
sg132
I0
sg133
I2
sba(ievotankclasses
obstacle
p369
(dp370
g131
I418
sg132
I576
sg133
I2
sba(ievotankclasses
obstacle
p371
(dp372
g131
I354
sg132
I576
sg133
I2
sba(ievotankclasses
obstacle
p373
(dp374
g131
I290
sg132
I576
sg133
I2
sba(ievotankclasses
obstacle
p375
(dp376
g131
I226
sg132
I576
sg133
I2
sba(ievotankclasses
obstacle
p377
(dp378
g131
I162
sg132
I576
sg133
I2
sba(ievotankclasses
obstacle
p379
(dp380
g131
I98
sg132
I576
sg133
I2
sba(ievotankclasses
obstacle
p381
(dp382
g131
I34
sg132
I576
sg133
I2
sba(ievotankclasses
obstacle
p383
(dp384
g131
I420
sg132
I576
sg133
I2
sba(ievotankclasses
obstacle
p385
(dp386
g131
I420
sg132
I512
sg133
I2
sba(ievotankclasses
obstacle
p387
(dp388
g131
I420
sg132
I448
sg133
I2
sba(ievotankclasses
obstacle
p389
(dp390
g131
I420
sg132
I384
sg133
I2
sba(ievotankclasses
obstacle
p391
(dp392
g131
I420
sg132
I320
sg133
I2
sba(ievotankclasses
obstacle
p393
(dp394
g131
I420
sg132
I256
sg133
I2
sba(ievotankclasses
obstacle
p395
(dp396
g131
I420
sg132
I192
sg133
I2
sba(ievotankclasses
obstacle
p397
(dp398
g131
I420
sg132
I128
sg133
I2
sba(ievotankclasses
obstacle
p399
(dp400
g131
I420
sg132
I64
sg133
I2
sba(ievotankclasses
obstacle
p401
(dp402
g131
I1
sg132
I576
sg133
I2
sba(ievotankclasses
obstacle
p403
(dp404
g131
I1
sg132
I512
sg133
I2
sba(ievotankclasses
obstacle
p405
(dp406
g131
I1
sg132
I448
sg133
I2
sba(ievotankclasses
obstacle
p407
(dp408
g131
I1
sg132
I384
sg133
I2
sba(ievotankclasses
obstacle
p409
(dp410
g131
I1
sg132
I320
sg133
I2
sba(ievotankclasses
obstacle
p411
(dp412
g131
I1
sg132
I256
sg133
I2
sba(ievotankclasses
obstacle
p413
(dp414
g131
I1
sg132
I192
sg133
I2
sba(ievotankclasses
obstacle
p415
(dp416
g131
I1
sg132
I128
sg133
I2
sba(ievotankclasses
obstacle
p417
(dp418
g131
I1
sg132
I64
sg133
I2
sba(ievotankclasses
obstacle
p419
(dp420
g131
I262
sg132
I0
sg133
I2
sg206
g207
sba(ievotankclasses
obstacle
p421
(dp422
g131
I1
sg132
I0
sg133
I2
sg206
g207
sba(ievotankclasses
obstacle
p423
(dp424
g120
I363
sg124
I457
sS'obstacletypenum'
p425
I0
sS'obstacletype'
p426
S'barrel'
p427
sba(ievotankclasses
obstacle
p428
(dp429
g120
I126
sg124
I455
sg425
I0
sg426
g427
sba(ievotankclasses
obstacle
p430
(dp431
g120
I233
sg124
I456
sg425
I0
sg426
g427
sbasg90
(lp432
(ievotankclasses
robot
p433
(dp434
S'y'
p435
I220
sS'minfuel'
p436
I1832
sS'ip'
p437
I1
sS'hits'
p438
I5
sS'dead'
p439
I0
sS'getammo'
p440
(lp441
I4
aI4
aI3
aI3
aI6
aI6
aI8
aI4
asS'heat'
p442
I748
sS'mindist'
p443
I253
sS'kill'
p444
(lp445
I9
aI3
aI2
aI4
aI4
aI4
aI2
aI5
asS'x'
p446
I303
sS'minammo'
p447
I55
sS'search'
p448
(lp449
I5
aI1
aI7
aI5
aI3
aI9
aI5
aI2
asS'rotate'
p450
I6
sS'name'
p451
S'EAT'
p452
sS'getarmor'
p453
(lp454
I3
aI2
aI3
aI5
aI2
aI8
aI8
aI5
asS'armor'
p455
F94.0
sS'getfuel'
p456
(lp457
I6
aI8
aI1
aI4
aI1
aI0
aI1
aI0
asS'minarmor'
p458
F58.0
sS'state'
p459
I2
sS'fuel'
p460
F1591.0
sS'velocity'
p461
I-3
sS'ammo'
p462
I54
sS'op'
p463
I6
sbasg6
I0
sg92
(lp464
sg94
(lp465
(ievotankclasses
door
p466
(dp467
g98
I3
sg99
I200
sg100
I0
sg101
I0
sg102
I576
sg103
I200
sbasg2
I0
sg3
I0
sba(ievotanklevels
room
p468
(dp469
g11
S'images/bggrate.png'
p470
sg13
(lp471
(ievotankclasses
pickup
p472
(dp473
g120
I214
sg121
I0
sg122
g123
sg124
I66
sbasg15
(lp474
(ievotankclasses
obstacle
p475
(dp476
g131
I0
sg132
I217
sg133
I2
sba(ievotankclasses
obstacle
p477
(dp478
g131
I0
sg132
I153
sg133
I2
sba(ievotankclasses
obstacle
p479
(dp480
g131
I0
sg132
I89
sg133
I2
sba(ievotankclasses
obstacle
p481
(dp482
g131
I0
sg132
I25
sg133
I2
sba(ievotankclasses
obstacle
p483
(dp484
g131
I0
sg132
I575
sg133
I2
sba(ievotankclasses
obstacle
p485
(dp486
g131
I0
sg132
I511
sg133
I2
sba(ievotankclasses
obstacle
p487
(dp488
g131
I0
sg132
I447
sg133
I2
sba(ievotankclasses
obstacle
p489
(dp490
g131
I0
sg132
I383
sg133
I2
sba(ievotankclasses
obstacle
p491
(dp492
g131
I155
sg132
I575
sg133
I2
sba(ievotankclasses
obstacle
p493
(dp494
g131
I91
sg132
I575
sg133
I2
sba(ievotankclasses
obstacle
p495
(dp496
g131
I27
sg132
I575
sg133
I2
sba(ievotankclasses
obstacle
p497
(dp498
g131
I421
sg132
I576
sg133
I2
sba(ievotankclasses
obstacle
p499
(dp500
g131
I357
sg132
I576
sg133
I2
sba(ievotankclasses
obstacle
p501
(dp502
g131
I293
sg132
I576
sg133
I2
sba(ievotankclasses
obstacle
p503
(dp504
g131
I0
sg132
I0
sg133
I2
sg206
g207
sba(ievotankclasses
obstacle
p505
(dp506
g131
I0
sg132
I346
sg133
I2
sg206
g207
sba(ievotankclasses
obstacle
p507
(dp508
g131
I281
sg132
I578
sg133
I2
sg206
g207
sba(ievotankclasses
obstacle
p509
(dp510
S'y'
p511
I137
sS'x'
p512
I422
sS'obstacletypenum'
p513
I0
sS'obstacletype'
p514
S'barrel'
p515
sba(ievotankclasses
obstacle
p516
(dp517
g511
I297
sg512
I424
sg513
I0
sg514
g515
sba(ievotankclasses
obstacle
p518
(dp519
g511
I64
sg512
I0
sg513
I0
sg514
g515
sba(ievotankclasses
obstacle
p520
(dp521
g511
I97
sg512
I0
sg513
I0
sg514
g515
sba(ievotankclasses
obstacle
p522
(dp523
g511
I128
sg512
I0
sg513
I0
sg514
g515
sba(ievotankclasses
obstacle
p524
(dp525
g511
I163
sg512
I0
sg513
I0
sg514
g515
sba(ievotankclasses
obstacle
p526
(dp527
g511
I196
sg512
I0
sg513
I0
sg514
g515
sba(ievotankclasses
obstacle
p528
(dp529
g511
I231
sg512
I0
sg513
I0
sg514
g515
sba(ievotankclasses
obstacle
p530
(dp531
g511
I265
sg512
I0
sg513
I0
sg514
g515
sba(ievotankclasses
obstacle
p532
(dp533
g511
I299
sg512
I0
sg513
I0
sg514
g515
sba(ievotankclasses
obstacle
p534
(dp535
g511
I331
sg512
I0
sg513
I0
sg514
g515
sba(ievotankclasses
obstacle
p536
(dp537
g511
I364
sg512
I0
sg513
I0
sg514
g515
sba(ievotankclasses
obstacle
p538
(dp539
g511
I397
sg512
I0
sg513
I0
sg514
g515
sba(ievotankclasses
obstacle
p540
(dp541
g511
I430
sg512
I0
sg513
I0
sg514
g515
sba(ievotankclasses
obstacle
p542
(dp543
g511
I457
sg512
I1
sg513
I0
sg514
g515
sba(ievotankclasses
obstacle
p544
(dp545
g511
I449
sg512
I33
sg513
I1
sg514
S'crate'
p546
sba(ievotankclasses
obstacle
p547
(dp548
g511
I449
sg512
I65
sg513
I1
sg514
g546
sba(ievotankclasses
obstacle
p549
(dp550
g511
I449
sg512
I96
sg513
I1
sg514
g546
sba(ievotankclasses
obstacle
p551
(dp552
g511
I449
sg512
I129
sg513
I1
sg514
g546
sba(ievotankclasses
obstacle
p553
(dp554
g511
I449
sg512
I161
sg513
I1
sg514
g546
sba(ievotankclasses
obstacle
p555
(dp556
g511
I448
sg512
I192
sg513
I1
sg514
g546
sba(ievotankclasses
obstacle
p557
(dp558
g511
I450
sg512
I223
sg513
I1
sg514
g546
sba(ievotankclasses
obstacle
p559
(dp560
g511
I449
sg512
I256
sg513
I1
sg514
g546
sba(ievotankclasses
obstacle
p561
(dp562
g511
I449
sg512
I289
sg513
I1
sg514
g546
sba(ievotankclasses
obstacle
p563
(dp564
g511
I449
sg512
I319
sg513
I1
sg514
g546
sba(ievotankclasses
obstacle
p565
(dp566
g511
I449
sg512
I353
sg513
I1
sg514
g546
sba(ievotankclasses
obstacle
p567
(dp568
g511
I449
sg512
I385
sg513
I1
sg514
g546
sba(ievotankclasses
obstacle
p569
(dp570
g511
I449
sg512
I418
sg513
I1
sg514
g546
sba(ievotankclasses
obstacle
p571
(dp572
g511
I449
sg512
I451
sg513
I1
sg514
g546
sba(ievotankclasses
obstacle
p573
(dp574
g511
I451
sg512
I483
sg513
I1
sg514
g546
sba(ievotankclasses
obstacle
p575
(dp576
g511
I449
sg512
I515
sg513
I1
sg514
g546
sba(ievotankclasses
obstacle
p577
(dp578
g511
I448
sg512
I545
sg513
I1
sg514
g546
sba(ievotankclasses
obstacle
p579
(dp580
g511
I229
sg512
I142
sg513
I0
sg514
g515
sba(ievotankclasses
obstacle
p581
(dp582
g511
I228
sg512
I175
sg513
I0
sg514
g515
sba(ievotankclasses
obstacle
p583
(dp584
g511
I230
sg512
I207
sg513
I0
sg514
g515
sba(ievotankclasses
obstacle
p585
(dp586
g511
I230
sg512
I239
sg513
I0
sg514
g515
sba(ievotankclasses
obstacle
p587
(dp588
g511
I231
sg512
I271
sg513
I0
sg514
g515
sba(ievotankclasses
obstacle
p589
(dp590
g511
I232
sg512
I300
sg513
I0
sg514
g515
sba(ievotankclasses
obstacle
p591
(dp592
g511
I232
sg512
I333
sg513
I0
sg514
g515
sba(ievotankclasses
obstacle
p593
(dp594
g511
I233
sg512
I365
sg513
I0
sg514
g515
sba(ievotankclasses
obstacle
p595
(dp596
g511
I234
sg512
I394
sg513
I0
sg514
g515
sba(ievotankclasses
obstacle
p597
(dp598
g511
I233
sg512
I426
sg513
I0
sg514
g515
sba(ievotankclasses
obstacle
p599
(dp600
g511
I203
sg512
I427
sg513
I0
sg514
g515
sba(ievotankclasses
obstacle
p601
(dp602
g511
I171
sg512
I427
sg513
I0
sg514
g515
sba(ievotankclasses
obstacle
p603
(dp604
g511
I264
sg512
I434
sg513
I0
sg514
g515
sba(ievotankclasses
obstacle
p605
(dp606
g511
I325
sg512
I436
sg513
I0
sg514
g515
sba(ievotankclasses
obstacle
p607
(dp608
g511
I357
sg512
I430
sg513
I0
sg514
g515
sba(ievotankclasses
obstacle
p609
(dp610
g511
I387
sg512
I432
sg513
I0
sg514
g515
sba(ievotankclasses
obstacle
p611
(dp612
g511
I417
sg512
I433
sg513
I0
sg514
g515
sbasg90
(lp613
(ievotankclasses
robot
p614
(dp615
S'y'
p616
I336
sS'minfuel'
p617
I1832
sS'ip'
p618
I7
sS'gestation'
p619
I0
sS'getammo'
p620
(lp621
I0
aI0
aI0
aI0
aI0
aI0
aI0
aI0
asS'heat'
p622
I1014
sS'mindist'
p623
I263
sS'kill'
p624
(lp625
I9
aI3
aI2
aI4
aI4
aI4
aI2
aI5
asS'x'
p626
I131
sS'partner'
p627
S'CIHI'
p628
sS'offspring'
p629
(ievotankclasses
robot
p630
(dp631
g616
I367
sg617
I1832
sg618
I4
sS'hits'
p632
I0
sS'dead'
p633
I1
sg620
(lp634
I0
aI0
aI0
aI0
aI0
aI0
aI0
aI0
asg622
I-1897
sg623
I263
sg624
(lp635
I9
aI3
aI2
aI4
aI4
aI4
aI2
aI5
asS'velocity'
p636
I0
sS'minammo'
p637
I55
sS'search'
p638
(lp639
I5
aI1
aI7
aI5
aI3
aI9
aI5
aI2
asS'rotate'
p640
I5
sS'name'
p641
S'CIYCRY'
p642
sS'getarmor'
p643
(lp644
I3
aI1
aI0
aI5
aI4
aI8
aI5
aI5
asS'armor'
p645
F-1.0
sS'getfuel'
p646
(lp647
I6
aI8
aI1
aI9
aI1
aI0
aI9
aI0
asS'state'
p648
I1
sS'minarmor'
p649
I100
sS'hitstilmating'
p650
I5
sS'fuel'
p651
F2142.0
sg626
I481
sS'ammo'
p652
I77
sS'op'
p653
I5
sbsg637
I55
sg638
g639
sg640
I2
sg641
S'AYTHAE'
p654
sg643
(lp655
I3
aI1
aI0
aI5
aI1
aI8
aI5
aI5
asg645
F100.0
sg632
I14
sg646
(lp656
I6
aI8
aI1
aI9
aI1
aI0
aI9
aI0
asg648
I2
sg649
I100
sg650
I3
sg651
F0.0
sg636
I1
sg652
I71
sg653
I9
sba(ievotankclasses
robot
p657
(dp658
S'y'
p659
I102
sS'minfuel'
p660
I1832
sS'ip'
p661
I7
sS'gestation'
p662
I0
sS'getammo'
p663
(lp664
I0
aI0
aI0
aI0
aI0
aI0
aI0
aI0
asS'heat'
p665
I1014
sS'mindist'
p666
I263
sS'kill'
p667
(lp668
I9
aI3
aI2
aI4
aI4
aI4
aI2
aI5
asS'x'
p669
I138
sS'partner'
p670
S'CIHI'
p671
sS'offspring'
p672
(ievotankclasses
robot
p673
(dp674
g659
I367
sg660
I1832
sg661
I4
sS'hits'
p675
I0
sS'dead'
p676
I1
sg663
(lp677
I0
aI0
aI0
aI0
aI0
aI0
aI0
aI0
asg665
I-1897
sg666
I263
sg667
(lp678
I9
aI3
aI2
aI4
aI4
aI4
aI2
aI5
asS'velocity'
p679
I0
sS'minammo'
p680
I55
sS'search'
p681
(lp682
I5
aI1
aI7
aI5
aI3
aI9
aI5
aI2
asS'rotate'
p683
I5
sS'name'
p684
S'CIYCRY'
p685
sS'getarmor'
p686
(lp687
I3
aI1
aI0
aI5
aI4
aI8
aI5
aI5
asS'armor'
p688
F-1.0
sS'getfuel'
p689
(lp690
I6
aI8
aI1
aI9
aI1
aI0
aI9
aI0
asS'state'
p691
I1
sS'minarmor'
p692
I100
sS'hitstilmating'
p693
I5
sS'fuel'
p694
F2142.0
sg669
I481
sS'ammo'
p695
I77
sS'op'
p696
I5
sbsg680
I55
sg681
g682
sg683
I2
sg684
S'AYTHAE'
p697
sg686
(lp698
I3
aI1
aI0
aI5
aI1
aI8
aI5
aI5
asg688
F100.0
sg675
I14
sg689
(lp699
I6
aI8
aI1
aI9
aI1
aI0
aI9
aI0
asg691
I2
sg692
I100
sg693
I3
sg694
F0.0
sg679
I1
sg695
I71
sg696
I9
sbasg6
I0
sg92
(lp700
sg94
(lp701
(ievotankclasses
door
p702
(dp703
g98
I0
sg99
I0
sg100
I282
sg101
I12
sg102
I282
sg103
I416
sba(ievotankclasses
door
p704
(dp705
S'rotate'
p706
I1
sg19
I218
sg20
I576
sS'to_room'
p707
I5
sS'to_x'
p708
I0
sS'to_y'
p709
I218
sbasg2
I0
sg3
I0
sba(ievotanklevels
room
p710
(dp711
g11
S'images/bgcrucirust.png'
p712
sg13
(lp713
(ievotankclasses
pickup
p714
(dp715
g120
I129
sg121
I0
sg122
g123
sg124
I331
sba(ievotankclasses
pickup
p716
(dp717
g120
I226
sg121
I1
sg122
g351
sg124
I419
sbasg15
(lp718
(ievotankclasses
obstacle
p719
(dp720
g131
I154
sg132
I0
sg133
I2
sba(ievotankclasses
obstacle
p721
(dp722
g131
I90
sg132
I0
sg133
I2
sba(ievotankclasses
obstacle
p723
(dp724
g131
I26
sg132
I0
sg133
I2
sba(ievotankclasses
obstacle
p725
(dp726
g131
I417
sg132
I1
sg133
I2
sba(ievotankclasses
obstacle
p727
(dp728
g131
I353
sg132
I1
sg133
I2
sba(ievotankclasses
obstacle
p729
(dp730
g131
I289
sg132
I1
sg133
I2
sba(ievotankclasses
obstacle
p731
(dp732
g131
I129
sg132
I575
sg133
I2
sba(ievotankclasses
obstacle
p733
(dp734
g131
I65
sg132
I575
sg133
I2
sba(ievotankclasses
obstacle
p735
(dp736
g131
I1
sg132
I575
sg133
I2
sba(ievotankclasses
obstacle
p737
(dp738
g131
I417
sg132
I576
sg133
I2
sba(ievotankclasses
obstacle
p739
(dp740
g131
I353
sg132
I576
sg133
I2
sba(ievotankclasses
obstacle
p741
(dp742
g131
I416
sg132
I218
sg133
I2
sba(ievotankclasses
obstacle
p743
(dp744
g131
I416
sg132
I154
sg133
I2
sba(ievotankclasses
obstacle
p745
(dp746
g131
I416
sg132
I90
sg133
I2
sba(ievotankclasses
obstacle
p747
(dp748
g131
I416
sg132
I26
sg133
I2
sba(ievotankclasses
obstacle
p749
(dp750
g131
I417
sg132
I577
sg133
I2
sba(ievotankclasses
obstacle
p751
(dp752
g131
I417
sg132
I513
sg133
I2
sba(ievotankclasses
obstacle
p753
(dp754
g131
I417
sg132
I449
sg133
I2
sba(ievotankclasses
obstacle
p755
(dp756
g131
I417
sg132
I385
sg133
I2
sba(ievotankclasses
obstacle
p757
(dp758
g131
I0
sg132
I0
sg133
I2
sg206
g207
sba(ievotankclasses
obstacle
p759
(dp760
g131
I280
sg132
I0
sg133
I2
sg206
g207
sba(ievotankclasses
obstacle
p761
(dp762
g131
I255
sg132
I577
sg133
I2
sg206
g207
sba(ievotankclasses
obstacle
p763
(dp764
g131
I417
sg132
I345
sg133
I2
sg206
g207
sba(ievotankclasses
obstacle
p765
(dp766
g120
I295
sg124
I400
sg425
I1
sg426
S'crate'
p767
sba(ievotankclasses
obstacle
p768
(dp769
g120
I305
sg124
I304
sg425
I1
sg426
g767
sba(ievotankclasses
obstacle
p770
(dp771
g120
I305
sg124
I273
sg425
I1
sg426
g767
sba(ievotankclasses
obstacle
p772
(dp773
g120
I305
sg124
I243
sg425
I1
sg426
g767
sba(ievotankclasses
obstacle
p774
(dp775
g120
I337
sg124
I245
sg425
I1
sg426
g767
sba(ievotankclasses
obstacle
p776
(dp777
g120
I366
sg124
I244
sg425
I1
sg426
g767
sba(ievotankclasses
obstacle
p778
(dp779
g120
I383
sg124
I243
sg425
I1
sg426
g767
sba(ievotankclasses
obstacle
p780
(dp781
g120
I306
sg124
I336
sg425
I1
sg426
g767
sba(ievotankclasses
obstacle
p782
(dp783
g120
I296
sg124
I369
sg425
I1
sg426
g767
sba(ievotankclasses
obstacle
p784
(dp785
g120
I297
sg124
I431
sg425
I1
sg426
g767
sba(ievotankclasses
obstacle
p786
(dp787
g120
I294
sg124
I464
sg425
I1
sg426
g767
sba(ievotankclasses
obstacle
p788
(dp789
g120
I132
sg124
I543
sg425
I1
sg426
g767
sba(ievotankclasses
obstacle
p790
(dp791
g120
I130
sg124
I511
sg425
I1
sg426
g767
sba(ievotankclasses
obstacle
p792
(dp793
g120
I128
sg124
I481
sg425
I1
sg426
g767
sba(ievotankclasses
obstacle
p794
(dp795
g120
I160
sg124
I477
sg425
I1
sg426
g767
sba(ievotankclasses
obstacle
p796
(dp797
g120
I194
sg124
I477
sg425
I1
sg426
g767
sba(ievotankclasses
obstacle
p798
(dp799
g120
I227
sg124
I476
sg425
I1
sg426
g767
sba(ievotankclasses
obstacle
p800
(dp801
g120
I260
sg124
I473
sg425
I1
sg426
g767
sba(ievotankclasses
obstacle
p802
(dp803
g120
I317
sg124
I578
sg425
I2
sg426
S'wall'
p804
sbasg90
(lp805
(ievotankclasses
robot
p806
(dp807
S'y'
p808
I200
sS'minfuel'
p809
I1832
sS'ip'
p810
I4
sS'gestation'
p811
I0
sS'getammo'
p812
(lp813
I0
aI0
aI0
aI0
aI0
aI0
aI0
aI0
asS'heat'
p814
I1041
sS'mindist'
p815
I253
sS'kill'
p816
(lp817
I9
aI3
aI2
aI4
aI4
aI4
aI2
aI5
asS'x'
p818
I275
sS'partner'
p819
S'STOFRU'
p820
sS'offspring'
p821
(ievotankclasses
robot
p822
(dp823
g808
I230
sg809
I1832
sg810
I7
sS'hits'
p824
I1
sS'dead'
p825
I1
sg812
(lp826
I0
aI0
aI0
aI0
aI0
aI0
aI0
aI0
asg814
I111
sg815
I253
sg816
g817
sg818
I285
sS'minammo'
p827
I55
sS'search'
p828
(lp829
I5
aI1
aI7
aI5
aI3
aI9
aI5
aI2
asS'rotate'
p830
I1
sS'name'
p831
S'SHUPTO'
p832
sS'getarmor'
p833
(lp834
I3
aI1
aI0
aI5
aI4
aI8
aI5
aI5
asS'armor'
p835
F-2.0
sS'getfuel'
p836
(lp837
I6
aI8
aI1
aI9
aI1
aI0
aI9
aI0
asS'state'
p838
I1
sS'minarmor'
p839
F58.0
sS'hitstilmating'
p840
I4
sS'fuel'
p841
F3509.0
sS'velocity'
p842
I0
sS'ammo'
p843
I88
sS'op'
p844
I5
sbsg827
I55
sg828
g829
sg830
I6
sg831
S'PSEIRTI'
p845
sg833
(lp846
I3
aI1
aI0
aI5
aI4
aI8
aI5
aI5
asg835
F80.0
sg824
I8
sg836
g837
sg838
I0
sg839
F58.0
sg840
I2
sg841
F2261.0
sg842
I2
sg843
I96
sg844
I5
sbasg6
I0
sg92
(lp847
sg94
(lp848
(ievotankclasses
door
p849
(dp850
g98
I1
sg99
I192
sg100
I576
sg101
I6
sg102
I0
sg103
I192
sba(ievotankclasses
door
p851
(dp852
g108
I2
sg109
I416
sg110
I281
sg111
I1
sg112
I281
sg113
I0
sba(ievotankclasses
door
p853
(dp854
g706
I3
sg19
I218
sg20
I0
sg707
I4
sg708
I576
sg709
I218
sbasg2
I0
sg3
I0
sba(ievotanklevels
room
p855
(dp856
g11
S'images/bgcrucirust.png'
p857
sg13
(lp858
(ievotankclasses
pickup
p859
(dp860
g511
I234
sS'pickuptypenum'
p861
I2
sS'pickuptype'
p862
S'ammo'
p863
sg512
I305
sbasg15
(lp864
(ievotankclasses
obstacle
p865
(dp866
g131
I0
sg132
I231
sg133
I2
sba(ievotankclasses
obstacle
p867
(dp868
g131
I0
sg132
I167
sg133
I2
sba(ievotankclasses
obstacle
p869
(dp870
g131
I0
sg132
I103
sg133
I2
sba(ievotankclasses
obstacle
p871
(dp872
g131
I0
sg132
I39
sg133
I2
sba(ievotankclasses
obstacle
p873
(dp874
g131
I0
sg132
I578
sg133
I2
sba(ievotankclasses
obstacle
p875
(dp876
g131
I0
sg132
I514
sg133
I2
sba(ievotankclasses
obstacle
p877
(dp878
g131
I0
sg132
I450
sg133
I2
sba(ievotankclasses
obstacle
p879
(dp880
g131
I0
sg132
I386
sg133
I2
sba(ievotankclasses
obstacle
p881
(dp882
g131
I130
sg132
I0
sg133
I2
sba(ievotankclasses
obstacle
p883
(dp884
g131
I66
sg132
I0
sg133
I2
sba(ievotankclasses
obstacle
p885
(dp886
g131
I2
sg132
I0
sg133
I2
sba(ievotankclasses
obstacle
p887
(dp888
g131
I424
sg132
I0
sg133
I2
sba(ievotankclasses
obstacle
p889
(dp890
g131
I360
sg132
I0
sg133
I2
sba(ievotankclasses
obstacle
p891
(dp892
g131
I296
sg132
I0
sg133
I2
sba(ievotankclasses
obstacle
p893
(dp894
g131
I254
sg132
I0
sg133
I2
sg206
g207
sba(ievotankclasses
obstacle
p895
(dp896
g131
I0
sg132
I359
sg133
I2
sg206
g207
sbasg90
(lp897
(iclasses
robot
p898
(dp899
S'y'
p900
I63
sS'minfuel'
p901
I1832
sS'ip'
p902
I2
sS'gestation'
p903
I0
sS'dead'
p904
I0
sS'getammo'
p905
(lp906
I0
aI0
aI0
aI0
aI0
aI0
aI0
aI0
asS'heat'
p907
I0
sS'mindist'
p908
I263
sS'kill'
p909
(lp910
I9
aI3
aI2
aI4
aI4
aI4
aI2
aI5
asS'velocity'
p911
I0
sS'partner'
p912
S'EJY'
p913
sS'offspring'
p914
(iclasses
robot
p915
(dp916
S'y'
p917
I15
sS'minfuel'
p918
I1832
sS'ip'
p919
I5
sS'hits'
p920
I0
sg904
I1
sS'getammo'
p921
(lp922
I0
aI0
aI0
aI0
aI0
aI0
aI0
aI0
asS'mindist'
p923
I263
sS'kill'
p924
g910
sS'x'
p925
I-1
sS'minammo'
p926
I55
sS'search'
p927
(lp928
I5
aI1
aI7
aI5
aI3
aI9
aI5
aI2
asS'rotate'
p929
I1
sS'name'
p930
S'GREMEA'
p931
sS'getarmor'
p932
(lp933
I3
aI1
aI0
aI5
aI4
aI8
aI5
aI5
asS'armor'
p934
F0.0
sS'getfuel'
p935
(lp936
I6
aI5
aI1
aI9
aI1
aI0
aI9
aI0
asS'state'
p937
I1
sS'minarmor'
p938
I99
sS'hitstilmating'
p939
I5
sS'fuel'
p940
F3263.0
sS'velocity'
p941
I-1
sS'ammo'
p942
I100
sS'op'
p943
I4
sbsS'minammo'
p944
I55
sS'search'
p945
(lp946
I5
aI1
aI7
aI5
aI3
aI9
aI5
aI2
asS'rotate'
p947
I4
sS'name'
p948
S'PTIKT'
p949
sS'getarmor'
p950
(lp951
I3
aI1
aI0
aI5
aI4
aI8
aI5
aI5
asS'armor'
p952
F92.0
sS'hits'
p953
I12
sS'getfuel'
p954
(lp955
I6
aI5
aI1
aI9
aI1
aI0
aI9
aI0
asS'state'
p956
I1
sS'minarmor'
p957
I99
sS'hitstilmating'
p958
I4
sS'fuel'
p959
F2772.0
sS'x'
p960
I294
sS'ammo'
p961
I89
sS'op'
p962
I1
sbasg6
I0
sg92
(lp963
sg94
(lp964
(ievotankclasses
door
p965
(dp966
g98
I3
sg99
I192
sg100
I0
sg101
I5
sg102
I576
sg103
I192
sba(ievotankclasses
door
p967
(dp968
g98
I0
sg99
I0
sg100
I295
sg101
I7
sg102
I295
sg103
I416
sbasg2
I0
sg3
I0
sba(ievotanklevels
room
p969
(dp970
g11
S'images/bgcrucicracked.png'
p971
sg13
(lp972
(ievotankclasses
pickup
p973
(dp974
g511
I275
sg861
I2
sg862
g863
sg512
I248
sba(ievotankclasses
pickup
p975
(dp976
g511
I167
sg861
I0
sg862
S'armor'
p977
sg512
I312
sbasg15
(lp978
(ievotankclasses
obstacle
p979
(dp980
S'y'
p981
I140
sS'x'
p982
I576
sS'obstacletypenum'
p983
I2
sba(ievotankclasses
obstacle
p984
(dp985
g981
I76
sg982
I576
sg983
I2
sba(ievotankclasses
obstacle
p986
(dp987
g981
I419
sg982
I578
sg983
I2
sba(ievotankclasses
obstacle
p988
(dp989
g981
I355
sg982
I578
sg983
I2
sba(ievotankclasses
obstacle
p990
(dp991
g981
I291
sg982
I578
sg983
I2
sba(ievotankclasses
obstacle
p992
(dp993
g981
I419
sg982
I231
sg983
I2
sba(ievotankclasses
obstacle
p994
(dp995
g981
I419
sg982
I167
sg983
I2
sba(ievotankclasses
obstacle
p996
(dp997
g981
I419
sg982
I103
sg983
I2
sba(ievotankclasses
obstacle
p998
(dp999
g981
I419
sg982
I39
sg983
I2
sba(ievotankclasses
obstacle
p1000
(dp1001
g981
I417
sg982
I579
sg983
I2
sba(ievotankclasses
obstacle
p1002
(dp1003
g981
I417
sg982
I515
sg983
I2
sba(ievotankclasses
obstacle
p1004
(dp1005
g981
I417
sg982
I451
sg983
I2
sba(ievotankclasses
obstacle
p1006
(dp1007
g981
I417
sg982
I387
sg983
I2
sba(ievotankclasses
obstacle
p1008
(dp1009
g981
I267
sg982
I579
sg983
I2
sS'obstacletype'
p1010
S'wall'
p1011
sba(ievotankclasses
obstacle
p1012
(dp1013
g981
I13
sg982
I576
sg983
I2
sg1010
g1011
sba(ievotankclasses
obstacle
p1014
(dp1015
g981
I0
sg982
I576
sg983
I2
sg1010
g1011
sba(ievotankclasses
obstacle
p1016
(dp1017
g981
I417
sg982
I356
sg983
I2
sg1010
g1011
sba(ievotankclasses
obstacle
p1018
(dp1019
g981
I418
sg982
I0
sg983
I2
sg1010
g1011
sbasg90
(lp1020
(iclasses
robot
p1021
(dp1022
S'y'
p1023
I126
sS'minfuel'
p1024
I1832
sS'ip'
p1025
I2
sS'gestation'
p1026
I0
sS'dead'
p1027
I0
sS'getammo'
p1028
(lp1029
I0
aI0
aI0
aI0
aI0
aI0
aI0
aI0
asS'heat'
p1030
I0
sS'mindist'
p1031
I263
sS'kill'
p1032
(lp1033
I9
aI3
aI2
aI4
aI4
aI4
aI2
aI5
asS'velocity'
p1034
I0
sS'partner'
p1035
S'EJY'
p1036
sS'offspring'
p1037
(iclasses
robot
p1038
(dp1039
S'y'
p1040
I15
sS'minfuel'
p1041
I1832
sS'ip'
p1042
I5
sS'hits'
p1043
I0
sg1027
I1
sS'getammo'
p1044
(lp1045
I0
aI0
aI0
aI0
aI0
aI0
aI0
aI0
asS'mindist'
p1046
I263
sS'kill'
p1047
g1033
sS'x'
p1048
I-1
sS'minammo'
p1049
I55
sS'search'
p1050
(lp1051
I5
aI1
aI7
aI5
aI3
aI9
aI5
aI2
asS'rotate'
p1052
I1
sS'name'
p1053
S'GREMEA'
p1054
sS'getarmor'
p1055
(lp1056
I3
aI1
aI0
aI5
aI4
aI8
aI5
aI5
asS'armor'
p1057
F0.0
sS'getfuel'
p1058
(lp1059
I6
aI5
aI1
aI9
aI1
aI0
aI9
aI0
asS'state'
p1060
I1
sS'minarmor'
p1061
I99
sS'hitstilmating'
p1062
I5
sS'fuel'
p1063
F3263.0
sS'velocity'
p1064
I-1
sS'ammo'
p1065
I100
sS'op'
p1066
I4
sbsS'minammo'
p1067
I55
sS'search'
p1068
(lp1069
I5
aI1
aI7
aI5
aI3
aI9
aI5
aI2
asS'rotate'
p1070
I4
sS'name'
p1071
S'PTIKT'
p1072
sS'getarmor'
p1073
(lp1074
I3
aI1
aI0
aI5
aI4
aI8
aI5
aI5
asS'armor'
p1075
F92.0
sS'hits'
p1076
I12
sS'getfuel'
p1077
(lp1078
I6
aI5
aI1
aI9
aI1
aI0
aI9
aI0
asS'state'
p1079
I1
sS'minarmor'
p1080
I99
sS'hitstilmating'
p1081
I4
sS'fuel'
p1082
F2772.0
sS'x'
p1083
I229
sS'ammo'
p1084
I89
sS'op'
p1085
I1
sbasg6
I0
sg92
(lp1086
sg94
(lp1087
(ievotankclasses
door
p1088
(dp1089
g98
I2
sg99
I416
sg100
I295
sg101
I6
sg102
I295
sg103
I0
sba(ievotankclasses
door
p1090
(dp1091
g706
I1
sg19
I204
sg20
I576
sg707
I8
sg708
I0
sg709
I204
sbasg2
I0
sg3
I0
sba(ievotanklevels
room
p1092
(dp1093
S'background'
p1094
S'images/bgcrucicracked.png'
p1095
sS'pickups'
p1096
(lp1097
(ievotankclasses
pickup
p1098
(dp1099
g511
I234
sg861
I1
sg862
S'fuel'
p1100
sg512
I311
sbasS'obstacles'
p1101
(lp1102
(ievotankclasses
obstacle
p1103
(dp1104
g981
I140
sg982
I0
sg983
I2
sba(ievotankclasses
obstacle
p1105
(dp1106
g981
I76
sg982
I0
sg983
I2
sba(ievotankclasses
obstacle
p1107
(dp1108
g981
I12
sg982
I0
sg983
I2
sba(ievotankclasses
obstacle
p1109
(dp1110
g981
I416
sg982
I0
sg983
I2
sba(ievotankclasses
obstacle
p1111
(dp1112
g981
I352
sg982
I0
sg983
I2
sba(ievotankclasses
obstacle
p1113
(dp1114
g981
I288
sg982
I0
sg983
I2
sba(ievotankclasses
obstacle
p1115
(dp1116
g981
I139
sg982
I576
sg983
I2
sba(ievotankclasses
obstacle
p1117
(dp1118
g981
I75
sg982
I576
sg983
I2
sba(ievotankclasses
obstacle
p1119
(dp1120
g981
I11
sg982
I576
sg983
I2
sba(ievotankclasses
obstacle
p1121
(dp1122
g981
I420
sg982
I578
sg983
I2
sba(ievotankclasses
obstacle
p1123
(dp1124
g981
I356
sg982
I578
sg983
I2
sba(ievotankclasses
obstacle
p1125
(dp1126
g981
I292
sg982
I578
sg983
I2
sba(ievotankclasses
obstacle
p1127
(dp1128
g981
I0
sg982
I0
sg983
I2
sg1010
g1011
sba(ievotankclasses
obstacle
p1129
(dp1130
g981
I0
sg982
I578
sg983
I2
sg1010
g1011
sba(ievotankclasses
obstacle
p1131
(dp1132
g981
I265
sg982
I577
sg983
I2
sg1010
g1011
sba(ievotankclasses
obstacle
p1133
(dp1134
g981
I267
sg982
I0
sg983
I2
sg1010
g1011
sba(ievotankclasses
obstacle
p1135
(dp1136
g511
I58
sg512
I232
sg513
I0
sg514
g515
sba(ievotankclasses
obstacle
p1137
(dp1138
g511
I87
sg512
I232
sg513
I0
sg514
g515
sba(ievotankclasses
obstacle
p1139
(dp1140
g511
I117
sg512
I232
sg513
I0
sg514
g515
sba(ievotankclasses
obstacle
p1141
(dp1142
g511
I148
sg512
I232
sg513
I0
sg514
g515
sba(ievotankclasses
obstacle
p1143
(dp1144
g511
I179
sg512
I232
sg513
I0
sg514
g515
sba(ievotankclasses
obstacle
p1145
(dp1146
g511
I210
sg512
I230
sg513
I0
sg514
g515
sba(ievotankclasses
obstacle
p1147
(dp1148
g511
I240
sg512
I230
sg513
I0
sg514
g515
sba(ievotankclasses
obstacle
p1149
(dp1150
g511
I271
sg512
I228
sg513
I0
sg514
g515
sba(ievotankclasses
obstacle
p1151
(dp1152
g511
I302
sg512
I228
sg513
I0
sg514
g515
sba(ievotankclasses
obstacle
p1153
(dp1154
g511
I333
sg512
I228
sg513
I0
sg514
g515
sba(ievotankclasses
obstacle
p1155
(dp1156
g511
I361
sg512
I226
sg513
I0
sg514
g515
sba(ievotankclasses
obstacle
p1157
(dp1158
g511
I389
sg512
I233
sg513
I0
sg514
g515
sba(ievotankclasses
obstacle
p1159
(dp1160
g511
I416
sg512
I233
sg513
I0
sg514
g515
sba(ievotankclasses
obstacle
p1161
(dp1162
g511
I436
sg512
I232
sg513
I0
sg514
g515
sba(ievotankclasses
obstacle
p1163
(dp1164
g511
I450
sg512
I232
sg513
I0
sg514
g515
sba(ievotankclasses
obstacle
p1165
(dp1166
g511
I175
sg512
I474
sg513
I0
sg514
g515
sba(ievotankclasses
obstacle
p1167
(dp1168
g511
I205
sg512
I474
sg513
I0
sg514
g515
sba(ievotankclasses
obstacle
p1169
(dp1170
g511
I232
sg512
I474
sg513
I0
sg514
g515
sba(ievotankclasses
obstacle
p1171
(dp1172
g511
I261
sg512
I474
sg513
I0
sg514
g515
sba(ievotankclasses
obstacle
p1173
(dp1174
g511
I291
sg512
I474
sg513
I0
sg514
g515
sba(ievotankclasses
obstacle
p1175
(dp1176
g511
I323
sg512
I475
sg513
I0
sg514
g515
sba(ievotankclasses
obstacle
p1177
(dp1178
g511
I353
sg512
I474
sg513
I0
sg514
g515
sba(ievotankclasses
obstacle
p1179
(dp1180
g511
I383
sg512
I474
sg513
I0
sg514
g515
sba(ievotankclasses
obstacle
p1181
(dp1182
g511
I304
sg512
I501
sg513
I0
sg514
g515
sba(ievotankclasses
obstacle
p1183
(dp1184
g511
I304
sg512
I529
sg513
I0
sg514
g515
sba(ievotankclasses
obstacle
p1185
(dp1186
g511
I303
sg512
I555
sg513
I0
sg514
g515
sba(ievotankclasses
obstacle
p1187
(dp1188
g511
I0
sg512
I377
sg513
I0
sg514
g515
sba(ievotankclasses
obstacle
p1189
(dp1190
g511
I32
sg512
I378
sg513
I0
sg514
g515
sba(ievotankclasses
obstacle
p1191
(dp1192
g511
I63
sg512
I377
sg513
I0
sg514
g515
sba(ievotankclasses
obstacle
p1193
(dp1194
g511
I94
sg512
I377
sg513
I0
sg514
g515
sba(ievotankclasses
obstacle
p1195
(dp1196
g511
I126
sg512
I375
sg513
I0
sg514
g515
sba(ievotankclasses
obstacle
p1197
(dp1198
g511
I157
sg512
I368
sg513
I0
sg514
g515
sba(ievotankclasses
obstacle
p1199
(dp1200
g511
I188
sg512
I366
sg513
I0
sg514
g515
sba(ievotankclasses
obstacle
p1201
(dp1202
g511
I215
sg512
I364
sg513
I0
sg514
g515
sba(ievotankclasses
obstacle
p1203
(dp1204
g511
I245
sg512
I363
sg513
I0
sg514
g515
sba(ievotankclasses
obstacle
p1205
(dp1206
g511
I272
sg512
I364
sg513
I0
sg514
g515
sba(ievotankclasses
obstacle
p1207
(dp1208
g511
I298
sg512
I364
sg513
I0
sg514
g515
sba(ievotankclasses
obstacle
p1209
(dp1210
g511
I329
sg512
I363
sg513
I0
sg514
g515
sba(ievotankclasses
obstacle
p1211
(dp1212
g511
I357
sg512
I363
sg513
I0
sg514
g515
sba(ievotankclasses
obstacle
p1213
(dp1214
g511
I145
sg512
I482
sg513
I0
sg514
g515
sba(ievotankclasses
obstacle
p1215
(dp1216
g511
I112
sg512
I482
sg513
I0
sg514
g515
sba(ievotankclasses
obstacle
p1217
(dp1218
g511
I80
sg512
I480
sg513
I0
sg514
g515
sba(ievotankclasses
obstacle
p1219
(dp1220
g511
I52
sg512
I481
sg513
I0
sg514
g515
sbasS'robots'
p1221
(lp1222
(iclasses
robot
p1223
(dp1224
S'y'
p1225
I424
sS'minfuel'
p1226
I1832
sS'ip'
p1227
I2
sS'gestation'
p1228
I0
sS'dead'
p1229
I0
sS'getammo'
p1230
(lp1231
I0
aI0
aI0
aI0
aI0
aI0
aI0
aI0
asS'heat'
p1232
I0
sS'mindist'
p1233
I263
sS'kill'
p1234
(lp1235
I9
aI3
aI2
aI4
aI4
aI4
aI2
aI5
asS'velocity'
p1236
I0
sS'partner'
p1237
S'EJY'
p1238
sS'offspring'
p1239
(iclasses
robot
p1240
(dp1241
S'y'
p1242
I15
sS'minfuel'
p1243
I1832
sS'ip'
p1244
I5
sS'hits'
p1245
I0
sg1229
I1
sS'getammo'
p1246
(lp1247
I0
aI0
aI0
aI0
aI0
aI0
aI0
aI0
asS'mindist'
p1248
I263
sS'kill'
p1249
g1235
sS'x'
p1250
I-1
sS'minammo'
p1251
I55
sS'search'
p1252
(lp1253
I5
aI1
aI7
aI5
aI3
aI9
aI5
aI2
asS'rotate'
p1254
I1
sS'name'
p1255
S'GREMEA'
p1256
sS'getarmor'
p1257
(lp1258
I3
aI1
aI0
aI5
aI4
aI8
aI5
aI5
asS'armor'
p1259
F0.0
sS'getfuel'
p1260
(lp1261
I6
aI5
aI1
aI9
aI1
aI0
aI9
aI0
asS'state'
p1262
I1
sS'minarmor'
p1263
I99
sS'hitstilmating'
p1264
I5
sS'fuel'
p1265
F3263.0
sS'velocity'
p1266
I-1
sS'ammo'
p1267
I100
sS'op'
p1268
I4
sbsS'minammo'
p1269
I55
sS'search'
p1270
(lp1271
I5
aI1
aI7
aI5
aI3
aI9
aI5
aI2
asS'rotate'
p1272
I0
sS'name'
p1273
S'PTIKT'
p1274
sS'getarmor'
p1275
(lp1276
I3
aI1
aI0
aI5
aI4
aI8
aI5
aI5
asS'armor'
p1277
F92.0
sS'hits'
p1278
I12
sS'getfuel'
p1279
(lp1280
I6
aI5
aI1
aI9
aI1
aI0
aI9
aI0
asS'state'
p1281
I1
sS'minarmor'
p1282
I99
sS'hitstilmating'
p1283
I4
sS'fuel'
p1284
F2772.0
sS'x'
p1285
I59
sS'ammo'
p1286
I89
sS'op'
p1287
I1
sba(ievotankclasses
robot
p1288
(dp1289
S'y'
p1290
I1
sS'minfuel'
p1291
I1832
sS'ip'
p1292
I7
sS'gestation'
p1293
I0
sS'getammo'
p1294
(lp1295
I0
aI0
aI0
aI0
aI0
aI0
aI0
aI0
asS'heat'
p1296
I1014
sS'mindist'
p1297
I263
sS'kill'
p1298
(lp1299
I9
aI3
aI2
aI4
aI4
aI4
aI2
aI5
asS'x'
p1300
I60
sS'partner'
p1301
S'CIHI'
p1302
sS'offspring'
p1303
(ievotankclasses
robot
p1304
(dp1305
g1290
I367
sg1291
I1832
sg1292
I4
sS'hits'
p1306
I0
sS'dead'
p1307
I1
sg1294
(lp1308
I0
aI0
aI0
aI0
aI0
aI0
aI0
aI0
asg1296
I-1897
sg1297
I263
sg1298
(lp1309
I9
aI3
aI2
aI4
aI4
aI4
aI2
aI5
asg1300
I481
sS'minammo'
p1310
I55
sS'search'
p1311
(lp1312
I5
aI1
aI7
aI5
aI3
aI9
aI5
aI2
asS'rotate'
p1313
I5
sS'name'
p1314
S'CIYCRY'
p1315
sS'getarmor'
p1316
(lp1317
I3
aI1
aI0
aI5
aI4
aI8
aI5
aI5
asS'armor'
p1318
F-1.0
sS'getfuel'
p1319
(lp1320
I6
aI8
aI1
aI9
aI1
aI0
aI9
aI0
asS'state'
p1321
I1
sS'minarmor'
p1322
I100
sS'hitstilmating'
p1323
I5
sS'fuel'
p1324
F2142.0
sS'velocity'
p1325
I0
sS'ammo'
p1326
I77
sS'op'
p1327
I5
sbsg1310
I55
sg1311
g1312
sg1313
I4
sg1314
S'AYTHAE'
p1328
sg1316
(lp1329
I3
aI1
aI0
aI5
aI1
aI8
aI5
aI5
asg1318
F100.0
sg1306
I14
sg1319
(lp1330
I6
aI8
aI1
aI9
aI1
aI0
aI9
aI0
asg1321
I2
sg1322
I100
sg1323
I3
sg1324
F0.0
sg1325
I1
sg1326
I71
sg1327
I9
sbasS'playerrotate'
p1331
I0
sS'bullets'
p1332
(lp1333
sS'doors'
p1334
(lp1335
(ievotankclasses
door
p1336
(dp1337
g706
I3
sg19
I204
sg20
I0
sg707
I7
sg708
I576
sg709
I204
sba(ievotankclasses
door
p1338
(dp1339
g706
I1
sg19
I201
sg20
I576
sg707
I9
sg708
I0
sg709
I201
sbasS'playerx'
p1340
I0
sS'playery'
p1341
I0
sba(ievotanklevels
room
p1342
(dp1343
g1094
S'images/bgcrucirust.png'
p1344
sg1096
(lp1345
(ievotankclasses
pickup
p1346
(dp1347
g511
I371
sg861
I2
sg862
g863
sg512
I301
sba(ievotankclasses
pickup
p1348
(dp1349
g511
I372
sg861
I0
sg862
g977
sg512
I334
sbasg1101
(lp1350
(ievotankclasses
obstacle
p1351
(dp1352
g981
I138
sg982
I0
sg983
I2
sba(ievotankclasses
obstacle
p1353
(dp1354
g981
I74
sg982
I0
sg983
I2
sba(ievotankclasses
obstacle
p1355
(dp1356
g981
I10
sg982
I0
sg983
I2
sba(ievotankclasses
obstacle
p1357
(dp1358
g981
I417
sg982
I0
sg983
I2
sba(ievotankclasses
obstacle
p1359
(dp1360
g981
I353
sg982
I0
sg983
I2
sba(ievotankclasses
obstacle
p1361
(dp1362
g981
I289
sg982
I0
sg983
I2
sba(ievotankclasses
obstacle
p1363
(dp1364
g981
I426
sg982
I223
sg983
I2
sba(ievotankclasses
obstacle
p1365
(dp1366
g981
I426
sg982
I159
sg983
I2
sba(ievotankclasses
obstacle
p1367
(dp1368
g981
I426
sg982
I95
sg983
I2
sba(ievotankclasses
obstacle
p1369
(dp1370
g981
I426
sg982
I31
sg983
I2
sba(ievotankclasses
obstacle
p1371
(dp1372
g981
I418
sg982
I576
sg983
I2
sba(ievotankclasses
obstacle
p1373
(dp1374
g981
I418
sg982
I512
sg983
I2
sba(ievotankclasses
obstacle
p1375
(dp1376
g981
I418
sg982
I448
sg983
I2
sba(ievotankclasses
obstacle
p1377
(dp1378
g981
I418
sg982
I384
sg983
I2
sba(ievotankclasses
obstacle
p1379
(dp1380
g981
I265
sg982
I0
sg983
I2
sg1010
g1011
sba(ievotankclasses
obstacle
p1381
(dp1382
g981
I0
sg982
I0
sg983
I2
sg1010
g1011
sba(ievotankclasses
obstacle
p1383
(dp1384
g981
I419
sg982
I346
sg983
I2
sg1010
g1011
sbasg1221
(lp1385
sg1331
I0
sg1332
(lp1386
sg1334
(lp1387
(ievotankclasses
door
p1388
(dp1389
g706
I3
sg19
I201
sg20
I0
sg707
I8
sg708
I576
sg709
I201
sba(ievotankclasses
door
p1390
(dp1391
g706
I2
sg19
I416
sg20
I283
sg707
I10
sg708
I283
sg709
I0
sbasg1340
I0
sg1341
I0
sba(ievotanklevels
room
p1392
(dp1393
g1094
S'images/bgcrucirust.png'
p1394
sg1096
(lp1395
(ievotankclasses
pickup
p1396
(dp1397
g511
I379
sg861
I1
sg862
g1100
sg512
I102
sbasg1101
(lp1398
(ievotankclasses
obstacle
p1399
(dp1400
g511
I417
sg512
I0
sg513
I2
sba(ievotankclasses
obstacle
p1401
(dp1402
g511
I353
sg512
I0
sg513
I2
sba(ievotankclasses
obstacle
p1403
(dp1404
g511
I289
sg512
I0
sg513
I2
sba(ievotankclasses
obstacle
p1405
(dp1406
g511
I225
sg512
I0
sg513
I2
sba(ievotankclasses
obstacle
p1407
(dp1408
g511
I161
sg512
I0
sg513
I2
sba(ievotankclasses
obstacle
p1409
(dp1410
g511
I97
sg512
I0
sg513
I2
sba(ievotankclasses
obstacle
p1411
(dp1412
g511
I33
sg512
I0
sg513
I2
sba(ievotankclasses
obstacle
p1413
(dp1414
g511
I0
sg512
I1
sg513
I2
sg514
S'wall'
p1415
sba(ievotankclasses
obstacle
p1416
(dp1417
g511
I415
sg512
I576
sg513
I2
sba(ievotankclasses
obstacle
p1418
(dp1419
g511
I351
sg512
I576
sg513
I2
sba(ievotankclasses
obstacle
p1420
(dp1421
g511
I287
sg512
I576
sg513
I2
sba(ievotankclasses
obstacle
p1422
(dp1423
g511
I223
sg512
I576
sg513
I2
sba(ievotankclasses
obstacle
p1424
(dp1425
g511
I159
sg512
I576
sg513
I2
sba(ievotankclasses
obstacle
p1426
(dp1427
g511
I95
sg512
I576
sg513
I2
sba(ievotankclasses
obstacle
p1428
(dp1429
g511
I31
sg512
I576
sg513
I2
sba(ievotankclasses
obstacle
p1430
(dp1431
g511
I0
sg512
I576
sg513
I2
sba(ievotankclasses
obstacle
p1432
(dp1433
g511
I0
sg512
I512
sg513
I2
sba(ievotankclasses
obstacle
p1434
(dp1435
g511
I0
sg512
I448
sg513
I2
sba(ievotankclasses
obstacle
p1436
(dp1437
g511
I0
sg512
I384
sg513
I2
sba(ievotankclasses
obstacle
p1438
(dp1439
g511
I1
sg512
I220
sg513
I2
sba(ievotankclasses
obstacle
p1440
(dp1441
g511
I1
sg512
I156
sg513
I2
sba(ievotankclasses
obstacle
p1442
(dp1443
g511
I1
sg512
I92
sg513
I2
sba(ievotankclasses
obstacle
p1444
(dp1445
g511
I1
sg512
I28
sg513
I2
sba(ievotankclasses
obstacle
p1446
(dp1447
g511
I421
sg512
I219
sg513
I2
sba(ievotankclasses
obstacle
p1448
(dp1449
g511
I421
sg512
I155
sg513
I2
sba(ievotankclasses
obstacle
p1450
(dp1451
g511
I421
sg512
I91
sg513
I2
sba(ievotankclasses
obstacle
p1452
(dp1453
g511
I421
sg512
I27
sg513
I2
sba(ievotankclasses
obstacle
p1454
(dp1455
g511
I417
sg512
I577
sg513
I2
sba(ievotankclasses
obstacle
p1456
(dp1457
g511
I417
sg512
I513
sg513
I2
sba(ievotankclasses
obstacle
p1458
(dp1459
g511
I417
sg512
I449
sg513
I2
sba(ievotankclasses
obstacle
p1460
(dp1461
g511
I417
sg512
I385
sg513
I2
sba(ievotankclasses
obstacle
p1462
(dp1463
g511
I417
sg512
I347
sg513
I2
sg514
g1415
sba(ievotankclasses
obstacle
p1464
(dp1465
g511
I0
sg512
I348
sg513
I2
sg514
g1415
sba(ievotankclasses
obstacle
p1466
(dp1467
g511
I194
sg512
I349
sg513
I2
sba(ievotankclasses
obstacle
p1468
(dp1469
g511
I130
sg512
I349
sg513
I2
sba(ievotankclasses
obstacle
p1470
(dp1471
g511
I66
sg512
I349
sg513
I2
sba(ievotankclasses
obstacle
p1472
(dp1473
g511
I194
sg512
I350
sg513
I2
sba(ievotankclasses
obstacle
p1474
(dp1475
g511
I207
sg512
I350
sg513
I2
sba(ievotankclasses
obstacle
p1476
(dp1477
g511
I207
sg512
I286
sg513
I2
sba(ievotankclasses
obstacle
p1478
(dp1479
g511
I207
sg512
I222
sg513
I2
sba(ievotankclasses
obstacle
p1480
(dp1481
g511
I207
sg512
I158
sg513
I2
sba(ievotankclasses
obstacle
p1482
(dp1483
g511
I322
sg512
I63
sg513
I0
sg514
g515
sba(ievotankclasses
obstacle
p1484
(dp1485
g511
I322
sg512
I94
sg513
I0
sg514
g515
sba(ievotankclasses
obstacle
p1486
(dp1487
g511
I321
sg512
I125
sg513
I0
sg514
g515
sba(ievotankclasses
obstacle
p1488
(dp1489
g511
I322
sg512
I154
sg513
I0
sg514
g515
sba(ievotankclasses
obstacle
p1490
(dp1491
g511
I322
sg512
I186
sg513
I0
sg514
g515
sba(ievotankclasses
obstacle
p1492
(dp1493
g511
I323
sg512
I217
sg513
I0
sg514
g515
sba(ievotankclasses
obstacle
p1494
(dp1495
g511
I323
sg512
I249
sg513
I0
sg514
g515
sba(ievotankclasses
obstacle
p1496
(dp1497
g511
I323
sg512
I279
sg513
I0
sg514
g515
sba(ievotankclasses
obstacle
p1498
(dp1499
g511
I322
sg512
I309
sg513
I0
sg514
g515
sba(ievotankclasses
obstacle
p1500
(dp1501
g511
I322
sg512
I340
sg513
I0
sg514
g515
sba(ievotankclasses
obstacle
p1502
(dp1503
g511
I321
sg512
I372
sg513
I0
sg514
g515
sba(ievotankclasses
obstacle
p1504
(dp1505
g511
I321
sg512
I404
sg513
I0
sg514
g515
sba(ievotankclasses
obstacle
p1506
(dp1507
g511
I320
sg512
I435
sg513
I0
sg514
g515
sba(ievotankclasses
obstacle
p1508
(dp1509
g511
I319
sg512
I463
sg513
I0
sg514
g515
sba(ievotankclasses
obstacle
p1510
(dp1511
g511
I288
sg512
I482
sg513
I0
sg514
g515
sba(ievotankclasses
obstacle
p1512
(dp1513
g511
I258
sg512
I484
sg513
I0
sg514
g515
sba(ievotankclasses
obstacle
p1514
(dp1515
g511
I225
sg512
I483
sg513
I0
sg514
g515
sba(ievotankclasses
obstacle
p1516
(dp1517
g511
I196
sg512
I483
sg513
I0
sg514
g515
sba(ievotankclasses
obstacle
p1518
(dp1519
g511
I166
sg512
I484
sg513
I0
sg514
g515
sba(ievotankclasses
obstacle
p1520
(dp1521
g511
I134
sg512
I484
sg513
I0
sg514
g515
sbasg1221
(lp1522
sg1331
I0
sg1332
(lp1523
sg1334
(lp1524
(ievotankclasses
door
p1525
(dp1526
g706
I0
sg19
I0
sg20
I283
sg707
I9
sg708
I283
sg709
I416
sba(ievotankclasses
door
p1527
(dp1528
g706
I2
sg19
I416
sg20
I283
sg707
I11
sg708
I283
sg709
I0
sbasg1340
I0
sg1341
I0
sba(ievotanklevels
room
p1529
(dp1530
g1094
S'images/bglava.png'
p1531
sg1096
(lp1532
(ievotankclasses
pickup
p1533
(dp1534
g511
I277
sg861
I2
sg862
g863
sg512
I121
sba(ievotankclasses
pickup
p1535
(dp1536
g511
I330
sg861
I0
sg862
g977
sg512
I210
sba(ievotankclasses
pickup
p1537
(dp1538
g511
I329
sg861
I0
sg862
g977
sg512
I320
sba(ievotankclasses
pickup
p1539
(dp1540
g511
I269
sg861
I0
sg862
g977
sg512
I389
sba(ievotankclasses
pickup
p1541
(dp1542
g511
I219
sg861
I0
sg862
g977
sg512
I315
sba(ievotankclasses
pickup
p1543
(dp1544
g511
I165
sg861
I1
sg862
g1100
sg512
I512
sbasg1101
(lp1545
(ievotankclasses
obstacle
p1546
(dp1547
g511
I1
sg512
I218
sg513
I2
sba(ievotankclasses
obstacle
p1548
(dp1549
g511
I1
sg512
I154
sg513
I2
sba(ievotankclasses
obstacle
p1550
(dp1551
g511
I1
sg512
I90
sg513
I2
sba(ievotankclasses
obstacle
p1552
(dp1553
g511
I1
sg512
I26
sg513
I2
sba(ievotankclasses
obstacle
p1554
(dp1555
g511
I0
sg512
I576
sg513
I2
sba(ievotankclasses
obstacle
p1556
(dp1557
g511
I0
sg512
I512
sg513
I2
sba(ievotankclasses
obstacle
p1558
(dp1559
g511
I0
sg512
I448
sg513
I2
sba(ievotankclasses
obstacle
p1560
(dp1561
g511
I0
sg512
I384
sg513
I2
sba(ievotankclasses
obstacle
p1562
(dp1563
g511
I0
sg512
I346
sg513
I2
sg514
g1415
sba(ievotankclasses
obstacle
p1564
(dp1565
g511
I1
sg512
I0
sg513
I2
sg514
g1415
sbasg1221
(lp1566
(ievotankclasses
robot
p1567
(dp1568
S'y'
p1569
I409
sS'minfuel'
p1570
I1687
sS'ip'
p1571
I5
sS'hits'
p1572
I1
sS'dead'
p1573
I0
sS'getammo'
p1574
(lp1575
I1
aI4
aI3
aI3
aI6
aI6
aI8
aI9
asS'heat'
p1576
I-401
sS'mindist'
p1577
I193
sS'kill'
p1578
(lp1579
I9
aI3
aI2
aI1
aI4
aI1
aI4
aI5
asS'x'
p1580
I513
sS'minammo'
p1581
I50
sS'search'
p1582
(lp1583
I9
aI4
aI7
aI4
aI5
aI9
aI5
aI2
asS'rotate'
p1584
I0
sS'name'
p1585
S'CICTE'
p1586
sS'getarmor'
p1587
(lp1588
I0
aI4
aI3
aI5
aI2
aI8
aI6
aI3
asS'armor'
p1589
F72.0
sS'getfuel'
p1590
(lp1591
I6
aI7
aI4
aI4
aI1
aI0
aI1
aI0
asS'minarmor'
p1592
I100
sS'state'
p1593
I1
sS'fuel'
p1594
F3800.0
sS'velocity'
p1595
I5
sS'ammo'
p1596
I94
sS'op'
p1597
I2
sba(ievotankclasses
robot
p1598
(dp1599
S'y'
p1600
I406
sS'minfuel'
p1601
I1832
sS'ip'
p1602
I7
sS'gestation'
p1603
I0
sS'getammo'
p1604
(lp1605
I0
aI0
aI0
aI0
aI0
aI0
aI0
aI0
asS'heat'
p1606
I1014
sS'mindist'
p1607
I263
sS'kill'
p1608
(lp1609
I9
aI3
aI2
aI4
aI4
aI4
aI2
aI5
asS'x'
p1610
I347
sS'partner'
p1611
S'CIHI'
p1612
sS'offspring'
p1613
(ievotankclasses
robot
p1614
(dp1615
g1600
I367
sg1601
I1832
sg1602
I4
sS'hits'
p1616
I0
sS'dead'
p1617
I1
sg1604
(lp1618
I0
aI0
aI0
aI0
aI0
aI0
aI0
aI0
asg1606
I-1897
sg1607
I263
sg1608
(lp1619
I9
aI3
aI2
aI4
aI4
aI4
aI2
aI5
asg1610
I481
sS'minammo'
p1620
I55
sS'search'
p1621
(lp1622
I5
aI1
aI7
aI5
aI3
aI9
aI5
aI2
asS'rotate'
p1623
I5
sS'name'
p1624
S'CIYCRY'
p1625
sS'getarmor'
p1626
(lp1627
I3
aI1
aI0
aI5
aI4
aI8
aI5
aI5
asS'armor'
p1628
F-1.0
sS'getfuel'
p1629
(lp1630
I6
aI8
aI1
aI9
aI1
aI0
aI9
aI0
asS'state'
p1631
I1
sS'minarmor'
p1632
I100
sS'hitstilmating'
p1633
I5
sS'fuel'
p1634
F2142.0
sS'velocity'
p1635
I0
sS'ammo'
p1636
I77
sS'op'
p1637
I5
sbsg1620
I55
sg1621
g1622
sg1623
I0
sg1624
S'AYTHAE'
p1638
sg1626
(lp1639
I3
aI1
aI0
aI5
aI1
aI8
aI5
aI5
asg1628
F100.0
sg1616
I14
sg1629
(lp1640
I6
aI8
aI1
aI9
aI1
aI0
aI9
aI0
asg1631
I2
sg1632
I100
sg1633
I3
sg1634
F0.0
sg1635
I1
sg1636
I71
sg1637
I9
sba(ievotankclasses
robot
p1641
(dp1642
S'y'
p1643
I401
sS'minfuel'
p1644
I1832
sS'ip'
p1645
I1
sS'hits'
p1646
I5
sS'dead'
p1647
I0
sS'getammo'
p1648
(lp1649
I4
aI4
aI3
aI3
aI6
aI6
aI8
aI4
asS'heat'
p1650
I748
sS'mindist'
p1651
I253
sS'kill'
p1652
(lp1653
I9
aI3
aI2
aI4
aI4
aI4
aI2
aI5
asS'velocity'
p1654
I-3
sS'minammo'
p1655
I55
sS'search'
p1656
(lp1657
I5
aI1
aI7
aI5
aI3
aI9
aI5
aI2
asS'rotate'
p1658
I0
sS'name'
p1659
S'EAT'
p1660
sS'getarmor'
p1661
(lp1662
I3
aI2
aI3
aI5
aI2
aI8
aI8
aI5
asS'armor'
p1663
F94.0
sS'getfuel'
p1664
(lp1665
I6
aI8
aI1
aI4
aI1
aI0
aI1
aI0
asS'minarmor'
p1666
F58.0
sS'state'
p1667
I2
sS'fuel'
p1668
F1591.0
sS'x'
p1669
I219
sS'ammo'
p1670
I54
sS'op'
p1671
I6
sba(ievotankclasses
robot
p1672
(dp1673
S'y'
p1674
I400
sS'minfuel'
p1675
I1832
sS'ip'
p1676
I4
sS'gestation'
p1677
I0
sS'getammo'
p1678
(lp1679
I0
aI0
aI0
aI0
aI0
aI0
aI0
aI0
asS'heat'
p1680
I1041
sS'mindist'
p1681
I253
sS'kill'
p1682
(lp1683
I9
aI3
aI2
aI4
aI4
aI4
aI2
aI5
asS'x'
p1684
I150
sS'partner'
p1685
S'STOFRU'
p1686
sS'offspring'
p1687
(ievotankclasses
robot
p1688
(dp1689
g1674
I230
sg1675
I1832
sg1676
I7
sS'hits'
p1690
I1
sS'dead'
p1691
I1
sg1678
(lp1692
I0
aI0
aI0
aI0
aI0
aI0
aI0
aI0
asg1680
I111
sg1681
I253
sg1682
g1683
sg1684
I285
sS'minammo'
p1693
I55
sS'search'
p1694
(lp1695
I5
aI1
aI7
aI5
aI3
aI9
aI5
aI2
asS'rotate'
p1696
I1
sS'name'
p1697
S'SHUPTO'
p1698
sS'getarmor'
p1699
(lp1700
I3
aI1
aI0
aI5
aI4
aI8
aI5
aI5
asS'armor'
p1701
F-2.0
sS'getfuel'
p1702
(lp1703
I6
aI8
aI1
aI9
aI1
aI0
aI9
aI0
asS'state'
p1704
I1
sS'minarmor'
p1705
F58.0
sS'hitstilmating'
p1706
I4
sS'fuel'
p1707
F3509.0
sS'velocity'
p1708
I0
sS'ammo'
p1709
I88
sS'op'
p1710
I5
sbsg1693
I55
sg1694
g1695
sg1696
I0
sg1697
S'PSEIRTI'
p1711
sg1699
(lp1712
I3
aI1
aI0
aI5
aI4
aI8
aI5
aI5
asg1701
F80.0
sg1690
I8
sg1702
g1703
sg1704
I0
sg1705
F58.0
sg1706
I2
sg1707
F2261.0
sg1708
I2
sg1709
I96
sg1710
I5
sba(iclasses
robot
p1713
(dp1714
S'y'
p1715
I397
sS'minfuel'
p1716
I1832
sS'ip'
p1717
I2
sS'gestation'
p1718
I0
sS'dead'
p1719
I0
sS'getammo'
p1720
(lp1721
I0
aI0
aI0
aI0
aI0
aI0
aI0
aI0
asS'heat'
p1722
I0
sS'mindist'
p1723
I263
sS'kill'
p1724
(lp1725
I9
aI3
aI2
aI4
aI4
aI4
aI2
aI5
asS'velocity'
p1726
I0
sS'partner'
p1727
S'EJY'
p1728
sS'offspring'
p1729
(iclasses
robot
p1730
(dp1731
S'y'
p1732
I15
sS'minfuel'
p1733
I1832
sS'ip'
p1734
I5
sS'hits'
p1735
I0
sg1719
I1
sS'getammo'
p1736
(lp1737
I0
aI0
aI0
aI0
aI0
aI0
aI0
aI0
asS'mindist'
p1738
I263
sS'kill'
p1739
g1725
sS'x'
p1740
I-1
sS'minammo'
p1741
I55
sS'search'
p1742
(lp1743
I5
aI1
aI7
aI5
aI3
aI9
aI5
aI2
asS'rotate'
p1744
I1
sS'name'
p1745
S'GREMEA'
p1746
sS'getarmor'
p1747
(lp1748
I3
aI1
aI0
aI5
aI4
aI8
aI5
aI5
asS'armor'
p1749
F0.0
sS'getfuel'
p1750
(lp1751
I6
aI5
aI1
aI9
aI1
aI0
aI9
aI0
asS'state'
p1752
I1
sS'minarmor'
p1753
I99
sS'hitstilmating'
p1754
I5
sS'fuel'
p1755
F3263.0
sS'velocity'
p1756
I-1
sS'ammo'
p1757
I100
sS'op'
p1758
I4
sbsS'minammo'
p1759
I55
sS'search'
p1760
(lp1761
I5
aI1
aI7
aI5
aI3
aI9
aI5
aI2
asS'rotate'
p1762
I0
sS'name'
p1763
S'PTIKT'
p1764
sS'getarmor'
p1765
(lp1766
I3
aI1
aI0
aI5
aI4
aI8
aI5
aI5
asS'armor'
p1767
F92.0
sS'hits'
p1768
I12
sS'getfuel'
p1769
(lp1770
I6
aI5
aI1
aI9
aI1
aI0
aI9
aI0
asS'state'
p1771
I1
sS'minarmor'
p1772
I99
sS'hitstilmating'
p1773
I4
sS'fuel'
p1774
F2772.0
sS'x'
p1775
I71
sS'ammo'
p1776
I89
sS'op'
p1777
I1
sbasg1331
I0
sg1332
(lp1778
sg1334
(lp1779
(ievotankclasses
door
p1780
(dp1781
g706
I0
sg19
I0
sg20
I283
sg707
I10
sg708
I283
sg709
I416
sbasg1340
I0
sg1341
I0
sba(ievotanklevels
room
p1782
(dp1783
g1094
S'images/bggrate.png'
p1784
sg1096
(lp1785
(ievotankclasses
pickup
p1786
(dp1787
g511
I33
sg861
I1
sg862
g1100
sg512
I579
sbasg1101
(lp1788
(ievotankclasses
obstacle
p1789
(dp1790
g511
I417
sg512
I576
sg513
I2
sba(ievotankclasses
obstacle
p1791
(dp1792
g511
I417
sg512
I512
sg513
I2
sba(ievotankclasses
obstacle
p1793
(dp1794
g511
I417
sg512
I448
sg513
I2
sba(ievotankclasses
obstacle
p1795
(dp1796
g511
I417
sg512
I384
sg513
I2
sba(ievotankclasses
obstacle
p1797
(dp1798
g511
I417
sg512
I218
sg513
I2
sba(ievotankclasses
obstacle
p1799
(dp1800
g511
I417
sg512
I154
sg513
I2
sba(ievotankclasses
obstacle
p1801
(dp1802
g511
I417
sg512
I90
sg513
I2
sba(ievotankclasses
obstacle
p1803
(dp1804
g511
I417
sg512
I26
sg513
I2
sba(ievotankclasses
obstacle
p1805
(dp1806
g511
I417
sg512
I0
sg513
I2
sba(ievotankclasses
obstacle
p1807
(dp1808
g511
I353
sg512
I0
sg513
I2
sba(ievotankclasses
obstacle
p1809
(dp1810
g511
I289
sg512
I0
sg513
I2
sba(ievotankclasses
obstacle
p1811
(dp1812
g511
I123
sg512
I1
sg513
I2
sba(ievotankclasses
obstacle
p1813
(dp1814
g511
I59
sg512
I1
sg513
I2
sba(ievotankclasses
obstacle
p1815
(dp1816
g511
I0
sg512
I0
sg513
I2
sg514
g1415
sba(ievotankclasses
obstacle
p1817
(dp1818
g511
I249
sg512
I0
sg513
I2
sg514
g1415
sba(ievotankclasses
obstacle
p1819
(dp1820
g511
I417
sg512
I346
sg513
I2
sg514
g1415
sbasg1221
(lp1821
(ievotankclasses
robot
p1822
(dp1823
S'y'
p1824
I340
sS'minfuel'
p1825
I1832
sS'ip'
p1826
I4
sS'gestation'
p1827
I0
sS'getammo'
p1828
(lp1829
I0
aI0
aI0
aI0
aI0
aI0
aI0
aI0
asS'heat'
p1830
I1041
sS'mindist'
p1831
I253
sS'kill'
p1832
(lp1833
I9
aI3
aI2
aI4
aI4
aI4
aI2
aI5
asS'x'
p1834
I92
sS'partner'
p1835
S'STOFRU'
p1836
sS'offspring'
p1837
(ievotankclasses
robot
p1838
(dp1839
g1824
I230
sg1825
I1832
sg1826
I7
sS'hits'
p1840
I1
sS'dead'
p1841
I1
sg1828
(lp1842
I0
aI0
aI0
aI0
aI0
aI0
aI0
aI0
asg1830
I111
sg1831
I253
sg1832
g1833
sg1834
I285
sS'minammo'
p1843
I55
sS'search'
p1844
(lp1845
I5
aI1
aI7
aI5
aI3
aI9
aI5
aI2
asS'rotate'
p1846
I1
sS'name'
p1847
S'SHUPTO'
p1848
sS'getarmor'
p1849
(lp1850
I3
aI1
aI0
aI5
aI4
aI8
aI5
aI5
asS'armor'
p1851
F-2.0
sS'getfuel'
p1852
(lp1853
I6
aI8
aI1
aI9
aI1
aI0
aI9
aI0
asS'state'
p1854
I1
sS'minarmor'
p1855
F58.0
sS'hitstilmating'
p1856
I4
sS'fuel'
p1857
F3509.0
sS'velocity'
p1858
I0
sS'ammo'
p1859
I88
sS'op'
p1860
I5
sbsg1843
I55
sg1844
g1845
sg1846
I2
sg1847
S'PSEIRTI'
p1861
sg1849
(lp1862
I3
aI1
aI0
aI5
aI4
aI8
aI5
aI5
asg1851
F80.0
sg1840
I8
sg1852
g1853
sg1854
I0
sg1855
F58.0
sg1856
I2
sg1857
F2261.0
sg1858
I2
sg1859
I96
sg1860
I5
sbasg1331
I0
sg1332
(lp1863
sg1334
(lp1864
(ievotankclasses
door
p1865
(dp1866
g98
I2
sg99
I416
sg100
I282
sg101
I4
sg102
I282
sg103
I0
sba(ievotankclasses
door
p1867
(dp1868
g706
I3
sg19
I186
sg20
I0
sg707
I13
sg708
I576
sg709
I186
sbasg1340
I0
sg1341
I0
sba(ievotanklevels
room
p1869
(dp1870
g1094
S'images/bg.png'
p1871
sg1096
(lp1872
sg1101
(lp1873
(ievotankclasses
obstacle
p1874
(dp1875
g511
I109
sg512
I0
sg513
I2
sba(ievotankclasses
obstacle
p1876
(dp1877
g511
I45
sg512
I0
sg513
I2
sba(ievotankclasses
obstacle
p1878
(dp1879
g511
I423
sg512
I0
sg513
I2
sba(ievotankclasses
obstacle
p1880
(dp1881
g511
I359
sg512
I0
sg513
I2
sba(ievotankclasses
obstacle
p1882
(dp1883
g511
I295
sg512
I0
sg513
I2
sba(ievotankclasses
obstacle
p1884
(dp1885
g511
I122
sg512
I576
sg513
I2
sba(ievotankclasses
obstacle
p1886
(dp1887
g511
I58
sg512
I576
sg513
I2
sba(ievotankclasses
obstacle
p1888
(dp1889
g511
I416
sg512
I574
sg513
I2
sba(ievotankclasses
obstacle
p1890
(dp1891
g511
I352
sg512
I574
sg513
I2
sba(ievotankclasses
obstacle
p1892
(dp1893
g511
I288
sg512
I574
sg513
I2
sba(ievotankclasses
obstacle
p1894
(dp1895
g511
I250
sg512
I577
sg513
I2
sg514
g1415
sba(ievotankclasses
obstacle
p1896
(dp1897
g511
I0
sg512
I576
sg513
I2
sg514
g1415
sba(ievotankclasses
obstacle
p1898
(dp1899
g511
I1
sg512
I0
sg513
I2
sg514
g1415
sba(ievotankclasses
obstacle
p1900
(dp1901
g511
I237
sg512
I0
sg513
I2
sg514
g1415
sbasg1221
(lp1902
(ievotankclasses
robot
p1903
(dp1904
S'y'
p1905
I198
sS'minfuel'
p1906
I1832
sS'ip'
p1907
I1
sS'hits'
p1908
I5
sS'dead'
p1909
I0
sS'getammo'
p1910
(lp1911
I4
aI4
aI3
aI3
aI6
aI6
aI8
aI4
asS'heat'
p1912
I748
sS'mindist'
p1913
I253
sS'kill'
p1914
(lp1915
I9
aI3
aI2
aI4
aI4
aI4
aI2
aI5
asS'velocity'
p1916
I-3
sS'minammo'
p1917
I55
sS'search'
p1918
(lp1919
I5
aI1
aI7
aI5
aI3
aI9
aI5
aI2
asS'rotate'
p1920
I2
sS'name'
p1921
S'EAT'
p1922
sS'getarmor'
p1923
(lp1924
I3
aI2
aI3
aI5
aI2
aI8
aI8
aI5
asS'armor'
p1925
F94.0
sS'getfuel'
p1926
(lp1927
I6
aI8
aI1
aI4
aI1
aI0
aI1
aI0
asS'minarmor'
p1928
F58.0
sS'state'
p1929
I2
sS'fuel'
p1930
F1591.0
sS'x'
p1931
I262
sS'ammo'
p1932
I54
sS'op'
p1933
I6
sbasg1331
I0
sg1332
(lp1934
sg1334
(lp1935
(ievotankclasses
door
p1936
(dp1937
g706
I1
sg19
I186
sg20
I576
sg707
I12
sg708
I0
sg709
I186
sba(ievotankclasses
door
p1938
(dp1939
g706
I3
sg19
I173
sg20
I0
sg707
I14
sg708
I576
sg709
I173
sbasg1340
I0
sg1341
I0
sba(ievotanklevels
room
p1940
(dp1941
g1094
S'images/bggrate.png'
p1942
sg1096
(lp1943
(ievotankclasses
pickup
p1944
(dp1945
g511
I166
sg861
I1
sg862
g1100
sg512
I319
sba(ievotankclasses
pickup
p1946
(dp1947
g511
I273
sg861
I0
sg862
g977
sg512
I308
sba(ievotankclasses
pickup
p1948
(dp1949
g511
I225
sg861
I2
sg862
g863
sg512
I240
sbasg1101
(lp1950
(ievotankclasses
obstacle
p1951
(dp1952
g511
I0
sg512
I575
sg513
I2
sba(ievotankclasses
obstacle
p1953
(dp1954
g511
I0
sg512
I511
sg513
I2
sba(ievotankclasses
obstacle
p1955
(dp1956
g511
I0
sg512
I447
sg513
I2
sba(ievotankclasses
obstacle
p1957
(dp1958
g511
I0
sg512
I383
sg513
I2
sba(ievotankclasses
obstacle
p1959
(dp1960
g511
I0
sg512
I319
sg513
I2
sba(ievotankclasses
obstacle
p1961
(dp1962
g511
I0
sg512
I255
sg513
I2
sba(ievotankclasses
obstacle
p1963
(dp1964
g511
I0
sg512
I191
sg513
I2
sba(ievotankclasses
obstacle
p1965
(dp1966
g511
I0
sg512
I127
sg513
I2
sba(ievotankclasses
obstacle
p1967
(dp1968
g511
I0
sg512
I63
sg513
I2
sba(ievotankclasses
obstacle
p1969
(dp1970
g511
I64
sg512
I575
sg513
I2
sba(ievotankclasses
obstacle
p1971
(dp1972
g511
I64
sg512
I511
sg513
I2
sba(ievotankclasses
obstacle
p1973
(dp1974
g511
I64
sg512
I447
sg513
I2
sba(ievotankclasses
obstacle
p1975
(dp1976
g511
I64
sg512
I383
sg513
I2
sba(ievotankclasses
obstacle
p1977
(dp1978
g511
I64
sg512
I319
sg513
I2
sba(ievotankclasses
obstacle
p1979
(dp1980
g511
I64
sg512
I255
sg513
I2
sba(ievotankclasses
obstacle
p1981
(dp1982
g511
I64
sg512
I191
sg513
I2
sba(ievotankclasses
obstacle
p1983
(dp1984
g511
I64
sg512
I127
sg513
I2
sba(ievotankclasses
obstacle
p1985
(dp1986
g511
I109
sg512
I577
sg513
I2
sg514
g1415
sba(ievotankclasses
obstacle
p1987
(dp1988
g511
I64
sg512
I63
sg513
I2
sg514
g1415
sba(ievotankclasses
obstacle
p1989
(dp1990
g511
I417
sg512
I574
sg513
I2
sba(ievotankclasses
obstacle
p1991
(dp1992
g511
I353
sg512
I574
sg513
I2
sba(ievotankclasses
obstacle
p1993
(dp1994
g511
I289
sg512
I574
sg513
I2
sba(ievotankclasses
obstacle
p1995
(dp1996
g511
I236
sg512
I575
sg513
I2
sg514
g1415
sba(ievotankclasses
obstacle
p1997
(dp1998
g511
I418
sg512
I573
sg513
I2
sba(ievotankclasses
obstacle
p1999
(dp2000
g511
I418
sg512
I509
sg513
I2
sba(ievotankclasses
obstacle
p2001
(dp2002
g511
I418
sg512
I445
sg513
I2
sba(ievotankclasses
obstacle
p2003
(dp2004
g511
I418
sg512
I381
sg513
I2
sba(ievotankclasses
obstacle
p2005
(dp2006
g511
I418
sg512
I345
sg513
I2
sg514
g1415
sba(ievotankclasses
obstacle
p2007
(dp2008
g511
I419
sg512
I217
sg513
I2
sba(ievotankclasses
obstacle
p2009
(dp2010
g511
I419
sg512
I153
sg513
I2
sba(ievotankclasses
obstacle
p2011
(dp2012
g511
I419
sg512
I89
sg513
I2
sba(ievotankclasses
obstacle
p2013
(dp2014
g511
I419
sg512
I25
sg513
I2
sba(ievotankclasses
obstacle
p2015
(dp2016
g511
I417
sg512
I0
sg513
I2
sg514
g1415
sbasg1221
(lp2017
(ievotankclasses
robot
p2018
(dp2019
S'y'
p2020
I66
sS'minfuel'
p2021
I1832
sS'ip'
p2022
I1
sS'hits'
p2023
I5
sS'dead'
p2024
I0
sS'getammo'
p2025
(lp2026
I4
aI4
aI3
aI3
aI6
aI6
aI8
aI4
asS'heat'
p2027
I748
sS'mindist'
p2028
I253
sS'kill'
p2029
(lp2030
I9
aI3
aI2
aI4
aI4
aI4
aI2
aI5
asS'velocity'
p2031
I-3
sS'minammo'
p2032
I55
sS'search'
p2033
(lp2034
I5
aI1
aI7
aI5
aI3
aI9
aI5
aI2
asS'rotate'
p2035
I0
sS'name'
p2036
S'EAT'
p2037
sS'getarmor'
p2038
(lp2039
I3
aI2
aI3
aI5
aI2
aI8
aI8
aI5
asS'armor'
p2040
F94.0
sS'getfuel'
p2041
(lp2042
I6
aI8
aI1
aI4
aI1
aI0
aI1
aI0
asS'minarmor'
p2043
F58.0
sS'state'
p2044
I2
sS'fuel'
p2045
F1591.0
sS'x'
p2046
I0
sS'ammo'
p2047
I54
sS'op'
p2048
I6
sbasg1331
I0
sg1332
(lp2049
sg1334
(lp2050
(ievotankclasses
door
p2051
(dp2052
g706
I1
sg19
I173
sg20
I576
sg707
I13
sg708
I0
sg709
I173
sba(ievotankclasses
door
p2053
(dp2054
g706
I2
sg19
I416
sg20
I281
sg707
I15
sg708
I281
sg709
I0
sbasg1340
I0
sg1341
I0
sba(ievotanklevels
room
p2055
(dp2056
g1094
S'images/bggrate.png'
p2057
sg1096
(lp2058
(ievotankclasses
pickup
p2059
(dp2060
g511
I358
sg861
I1
sg862
g1100
sg512
I545
sbasg1101
(lp2061
(ievotankclasses
obstacle
p2062
(dp2063
g511
I0
sg512
I218
sg513
I2
sba(ievotankclasses
obstacle
p2064
(dp2065
g511
I0
sg512
I0
sg513
I2
sg514
g1415
sba(ievotankclasses
obstacle
p2066
(dp2067
g511
I0
sg512
I64
sg513
I2
sg514
g1415
sba(ievotankclasses
obstacle
p2068
(dp2069
g511
I0
sg512
I127
sg513
I2
sg514
g1415
sba(ievotankclasses
obstacle
p2070
(dp2071
g511
I1
sg512
I164
sg513
I2
sg514
g1415
sba(ievotankclasses
obstacle
p2072
(dp2073
g511
I0
sg512
I576
sg513
I2
sba(ievotankclasses
obstacle
p2074
(dp2075
g511
I0
sg512
I512
sg513
I2
sba(ievotankclasses
obstacle
p2076
(dp2077
g511
I0
sg512
I448
sg513
I2
sba(ievotankclasses
obstacle
p2078
(dp2079
g511
I0
sg512
I384
sg513
I2
sba(ievotankclasses
obstacle
p2080
(dp2081
g511
I0
sg512
I347
sg513
I2
sg514
g1415
sba(ievotankclasses
obstacle
p2082
(dp2083
g511
I417
sg512
I220
sg513
I2
sba(ievotankclasses
obstacle
p2084
(dp2085
g511
I417
sg512
I156
sg513
I2
sba(ievotankclasses
obstacle
p2086
(dp2087
g511
I417
sg512
I92
sg513
I2
sba(ievotankclasses
obstacle
p2088
(dp2089
g511
I417
sg512
I28
sg513
I2
sba(ievotankclasses
obstacle
p2090
(dp2091
g511
I417
sg512
I0
sg513
I2
sg514
g1415
sba(ievotankclasses
obstacle
p2092
(dp2093
g511
I416
sg512
I576
sg513
I2
sba(ievotankclasses
obstacle
p2094
(dp2095
g511
I416
sg512
I512
sg513
I2
sba(ievotankclasses
obstacle
p2096
(dp2097
g511
I416
sg512
I448
sg513
I2
sba(ievotankclasses
obstacle
p2098
(dp2099
g511
I416
sg512
I384
sg513
I2
sba(ievotankclasses
obstacle
p2100
(dp2101
g511
I416
sg512
I350
sg513
I2
sg514
g1415
sba(ievotankclasses
obstacle
p2102
(dp2103
g511
I64
sg512
I353
sg513
I0
sg514
g515
sba(ievotankclasses
obstacle
p2104
(dp2105
g511
I95
sg512
I355
sg513
I0
sg514
g515
sba(ievotankclasses
obstacle
p2106
(dp2107
g511
I126
sg512
I356
sg513
I0
sg514
g515
sba(ievotankclasses
obstacle
p2108
(dp2109
g511
I155
sg512
I356
sg513
I0
sg514
g515
sba(ievotankclasses
obstacle
p2110
(dp2111
g511
I186
sg512
I356
sg513
I0
sg514
g515
sba(ievotankclasses
obstacle
p2112
(dp2113
g511
I216
sg512
I357
sg513
I0
sg514
g515
sba(ievotankclasses
obstacle
p2114
(dp2115
g511
I246
sg512
I356
sg513
I0
sg514
g515
sba(ievotankclasses
obstacle
p2116
(dp2117
g511
I247
sg512
I326
sg513
I0
sg514
g515
sba(ievotankclasses
obstacle
p2118
(dp2119
g511
I246
sg512
I296
sg513
I0
sg514
g515
sba(ievotankclasses
obstacle
p2120
(dp2121
g511
I246
sg512
I267
sg513
I0
sg514
g515
sba(ievotankclasses
obstacle
p2122
(dp2123
g511
I246
sg512
I238
sg513
I0
sg514
g515
sba(ievotankclasses
obstacle
p2124
(dp2125
g511
I247
sg512
I206
sg513
I0
sg514
g515
sba(ievotankclasses
obstacle
p2126
(dp2127
g511
I248
sg512
I174
sg513
I0
sg514
g515
sba(ievotankclasses
obstacle
p2128
(dp2129
g511
I246
sg512
I143
sg513
I0
sg514
g515
sba(ievotankclasses
obstacle
p2130
(dp2131
g511
I245
sg512
I111
sg513
I0
sg514
g515
sba(ievotankclasses
obstacle
p2132
(dp2133
g511
I382
sg512
I483
sg513
I1
sg514
g546
sba(ievotankclasses
obstacle
p2134
(dp2135
g511
I349
sg512
I483
sg513
I1
sg514
g546
sba(ievotankclasses
obstacle
p2136
(dp2137
g511
I318
sg512
I483
sg513
I1
sg514
g546
sba(ievotankclasses
obstacle
p2138
(dp2139
g511
I286
sg512
I484
sg513
I1
sg514
g546
sba(ievotankclasses
obstacle
p2140
(dp2141
g511
I254
sg512
I483
sg513
I1
sg514
g546
sba(ievotankclasses
obstacle
p2142
(dp2143
g511
I221
sg512
I483
sg513
I1
sg514
g546
sba(ievotankclasses
obstacle
p2144
(dp2145
g511
I189
sg512
I483
sg513
I1
sg514
g546
sba(ievotankclasses
obstacle
p2146
(dp2147
g511
I157
sg512
I483
sg513
I1
sg514
g546
sbasg1221
(lp2148
(ievotankclasses
robot
p2149
(dp2150
S'y'
p2151
I81
sS'minfuel'
p2152
I1687
sS'ip'
p2153
I5
sS'hits'
p2154
I1
sS'dead'
p2155
I0
sS'getammo'
p2156
(lp2157
I1
aI4
aI3
aI3
aI6
aI6
aI8
aI9
asS'heat'
p2158
I-401
sS'mindist'
p2159
I193
sS'kill'
p2160
(lp2161
I9
aI3
aI2
aI1
aI4
aI1
aI4
aI5
asS'x'
p2162
I547
sS'minammo'
p2163
I50
sS'search'
p2164
(lp2165
I9
aI4
aI7
aI4
aI5
aI9
aI5
aI2
asS'rotate'
p2166
I6
sS'name'
p2167
S'CICTE'
p2168
sS'getarmor'
p2169
(lp2170
I0
aI4
aI3
aI5
aI2
aI8
aI6
aI3
asS'armor'
p2171
F72.0
sS'getfuel'
p2172
(lp2173
I6
aI7
aI4
aI4
aI1
aI0
aI1
aI0
asS'minarmor'
p2174
I100
sS'state'
p2175
I1
sS'fuel'
p2176
F3800.0
sS'velocity'
p2177
I5
sS'ammo'
p2178
I94
sS'op'
p2179
I2
sbasg1331
I0
sg1332
(lp2180
sg1334
(lp2181
(ievotankclasses
door
p2182
(dp2183
g706
I0
sg19
I0
sg20
I281
sg707
I14
sg708
I281
sg709
I416
sba(ievotankclasses
door
p2184
(dp2185
g706
I2
sg19
I416
sg20
I285
sg707
I16
sg708
I285
sg709
I0
sbasg1340
I0
sg1341
I0
sba(ievotanklevels
room
p2186
(dp2187
g1094
S'images/bggrate.png'
p2188
sg1096
(lp2189
(ievotankclasses
pickup
p2190
(dp2191
g511
I296
sg861
I2
sg862
g863
sg512
I84
sba(ievotankclasses
pickup
p2192
(dp2193
g511
I294
sg861
I0
sg862
g977
sg512
I140
sbasg1101
(lp2194
(ievotankclasses
obstacle
p2195
(dp2196
g511
I0
sg512
I220
sg513
I2
sba(ievotankclasses
obstacle
p2197
(dp2198
g511
I0
sg512
I156
sg513
I2
sba(ievotankclasses
obstacle
p2199
(dp2200
g511
I0
sg512
I92
sg513
I2
sba(ievotankclasses
obstacle
p2201
(dp2202
g511
I0
sg512
I28
sg513
I2
sba(ievotankclasses
obstacle
p2203
(dp2204
g511
I0
sg512
I575
sg513
I2
sba(ievotankclasses
obstacle
p2205
(dp2206
g511
I0
sg512
I511
sg513
I2
sba(ievotankclasses
obstacle
p2207
(dp2208
g511
I0
sg512
I447
sg513
I2
sba(ievotankclasses
obstacle
p2209
(dp2210
g511
I0
sg512
I383
sg513
I2
sba(ievotankclasses
obstacle
p2211
(dp2212
g511
I416
sg512
I216
sg513
I2
sba(ievotankclasses
obstacle
p2213
(dp2214
g511
I416
sg512
I152
sg513
I2
sba(ievotankclasses
obstacle
p2215
(dp2216
g511
I416
sg512
I88
sg513
I2
sba(ievotankclasses
obstacle
p2217
(dp2218
g511
I416
sg512
I24
sg513
I2
sba(ievotankclasses
obstacle
p2219
(dp2220
g511
I415
sg512
I576
sg513
I2
sba(ievotankclasses
obstacle
p2221
(dp2222
g511
I415
sg512
I512
sg513
I2
sba(ievotankclasses
obstacle
p2223
(dp2224
g511
I415
sg512
I448
sg513
I2
sba(ievotankclasses
obstacle
p2225
(dp2226
g511
I415
sg512
I384
sg513
I2
sba(ievotankclasses
obstacle
p2227
(dp2228
g511
I0
sg512
I350
sg513
I2
sg514
g1415
sba(ievotankclasses
obstacle
p2229
(dp2230
g511
I416
sg512
I350
sg513
I2
sg514
g1415
sba(ievotankclasses
obstacle
p2231
(dp2232
g511
I0
sg512
I0
sg513
I2
sg514
g1415
sba(ievotankclasses
obstacle
p2233
(dp2234
g511
I416
sg512
I0
sg513
I2
sg514
g1415
sba(ievotankclasses
obstacle
p2235
(dp2236
g511
I241
sg512
I44
sg513
I0
sg514
g515
sba(ievotankclasses
obstacle
p2237
(dp2238
g511
I269
sg512
I44
sg513
I0
sg514
g515
sba(ievotankclasses
obstacle
p2239
(dp2240
g511
I296
sg512
I45
sg513
I0
sg514
g515
sba(ievotankclasses
obstacle
p2241
(dp2242
g511
I308
sg512
I43
sg513
I0
sg514
g515
sba(ievotankclasses
obstacle
p2243
(dp2244
g511
I240
sg512
I73
sg513
I0
sg514
g515
sba(ievotankclasses
obstacle
p2245
(dp2246
g511
I241
sg512
I103
sg513
I0
sg514
g515
sba(ievotankclasses
obstacle
p2247
(dp2248
g511
I239
sg512
I127
sg513
I0
sg514
g515
sba(ievotankclasses
obstacle
p2249
(dp2250
g511
I239
sg512
I154
sg513
I0
sg514
g515
sba(ievotankclasses
obstacle
p2251
(dp2252
g511
I238
sg512
I178
sg513
I0
sg514
g515
sba(ievotankclasses
obstacle
p2253
(dp2254
g511
I269
sg512
I179
sg513
I0
sg514
g515
sba(ievotankclasses
obstacle
p2255
(dp2256
g511
I306
sg512
I177
sg513
I0
sg514
g515
sba(ievotankclasses
obstacle
p2257
(dp2258
g511
I289
sg512
I177
sg513
I0
sg514
g515
sbasg1221
(lp2259
sg1331
I0
sg1332
(lp2260
sg1334
(lp2261
(ievotankclasses
door
p2262
(dp2263
g706
I0
sg19
I0
sg20
I285
sg707
I15
sg708
I285
sg709
I416
sba(ievotankclasses
door
p2264
(dp2265
g706
I2
sg19
I416
sg20
I281
sg707
I17
sg708
I281
sg709
I0
sbasg1340
I0
sg1341
I0
sba(ievotanklevels
room
p2266
(dp2267
g1094
S'images/bglava.png'
p2268
sg1096
(lp2269
(ievotankclasses
pickup
p2270
(dp2271
g511
I366
sg861
I0
sg862
g977
sg512
I71
sba(ievotankclasses
pickup
p2272
(dp2273
g511
I388
sg861
I1
sg862
g1100
sg512
I101
sba(ievotankclasses
pickup
p2274
(dp2275
g511
I399
sg861
I2
sg862
g863
sg512
I63
sbasg1101
(lp2276
(ievotankclasses
obstacle
p2277
(dp2278
g511
I0
sg512
I216
sg513
I2
sba(ievotankclasses
obstacle
p2279
(dp2280
g511
I0
sg512
I152
sg513
I2
sba(ievotankclasses
obstacle
p2281
(dp2282
g511
I0
sg512
I88
sg513
I2
sba(ievotankclasses
obstacle
p2283
(dp2284
g511
I0
sg512
I24
sg513
I2
sba(ievotankclasses
obstacle
p2285
(dp2286
g511
I1
sg512
I577
sg513
I2
sba(ievotankclasses
obstacle
p2287
(dp2288
g511
I1
sg512
I513
sg513
I2
sba(ievotankclasses
obstacle
p2289
(dp2290
g511
I1
sg512
I449
sg513
I2
sba(ievotankclasses
obstacle
p2291
(dp2292
g511
I1
sg512
I385
sg513
I2
sba(ievotankclasses
obstacle
p2293
(dp2294
g511
I143
sg512
I580
sg513
I2
sba(ievotankclasses
obstacle
p2295
(dp2296
g511
I79
sg512
I580
sg513
I2
sba(ievotankclasses
obstacle
p2297
(dp2298
g511
I15
sg512
I580
sg513
I2
sba(ievotankclasses
obstacle
p2299
(dp2300
g511
I416
sg512
I576
sg513
I2
sba(ievotankclasses
obstacle
p2301
(dp2302
g511
I352
sg512
I576
sg513
I2
sba(ievotankclasses
obstacle
p2303
(dp2304
g511
I288
sg512
I576
sg513
I2
sba(ievotankclasses
obstacle
p2305
(dp2306
g511
I0
sg512
I1
sg513
I2
sg514
g1415
sba(ievotankclasses
obstacle
p2307
(dp2308
g511
I0
sg512
I344
sg513
I2
sg514
g1415
sba(ievotankclasses
obstacle
p2309
(dp2310
g511
I271
sg512
I576
sg513
I2
sg514
g1415
sba(ievotankclasses
obstacle
p2311
(dp2312
g511
I295
sg512
I0
sg513
I0
sg514
g515
sba(ievotankclasses
obstacle
p2313
(dp2314
g511
I295
sg512
I33
sg513
I0
sg514
g515
sba(ievotankclasses
obstacle
p2315
(dp2316
g511
I296
sg512
I66
sg513
I0
sg514
g515
sba(ievotankclasses
obstacle
p2317
(dp2318
g511
I297
sg512
I98
sg513
I0
sg514
g515
sba(ievotankclasses
obstacle
p2319
(dp2320
g511
I297
sg512
I130
sg513
I0
sg514
g515
sba(ievotankclasses
obstacle
p2321
(dp2322
g511
I322
sg512
I132
sg513
I0
sg514
g515
sba(ievotankclasses
obstacle
p2323
(dp2324
g511
I349
sg512
I132
sg513
I0
sg514
g515
sba(ievotankclasses
obstacle
p2325
(dp2326
g511
I368
sg512
I132
sg513
I0
sg514
g515
sba(ievotankclasses
obstacle
p2327
(dp2328
g511
I380
sg512
I131
sg513
I0
sg514
g515
sba(ievotankclasses
obstacle
p2329
(dp2330
g511
I394
sg512
I131
sg513
I0
sg514
g515
sbasg1221
(lp2331
(iclasses
robot
p2332
(dp2333
S'y'
p2334
I156
sS'minfuel'
p2335
I1832
sS'ip'
p2336
I2
sS'gestation'
p2337
I0
sS'dead'
p2338
I0
sS'getammo'
p2339
(lp2340
I0
aI0
aI0
aI0
aI0
aI0
aI0
aI0
asS'heat'
p2341
I0
sS'mindist'
p2342
I263
sS'kill'
p2343
(lp2344
I9
aI3
aI2
aI4
aI4
aI4
aI2
aI5
asS'velocity'
p2345
I0
sS'partner'
p2346
S'EJY'
p2347
sS'offspring'
p2348
(iclasses
robot
p2349
(dp2350
S'y'
p2351
I15
sS'minfuel'
p2352
I1832
sS'ip'
p2353
I5
sS'hits'
p2354
I0
sg2338
I1
sS'getammo'
p2355
(lp2356
I0
aI0
aI0
aI0
aI0
aI0
aI0
aI0
asS'mindist'
p2357
I263
sS'kill'
p2358
g2344
sS'x'
p2359
I-1
sS'minammo'
p2360
I55
sS'search'
p2361
(lp2362
I5
aI1
aI7
aI5
aI3
aI9
aI5
aI2
asS'rotate'
p2363
I1
sS'name'
p2364
S'GREMEA'
p2365
sS'getarmor'
p2366
(lp2367
I3
aI1
aI0
aI5
aI4
aI8
aI5
aI5
asS'armor'
p2368
F0.0
sS'getfuel'
p2369
(lp2370
I6
aI5
aI1
aI9
aI1
aI0
aI9
aI0
asS'state'
p2371
I1
sS'minarmor'
p2372
I99
sS'hitstilmating'
p2373
I5
sS'fuel'
p2374
F3263.0
sS'velocity'
p2375
I-1
sS'ammo'
p2376
I100
sS'op'
p2377
I4
sbsS'minammo'
p2378
I55
sS'search'
p2379
(lp2380
I5
aI1
aI7
aI5
aI3
aI9
aI5
aI2
asS'rotate'
p2381
I0
sS'name'
p2382
S'PTIKT'
p2383
sS'getarmor'
p2384
(lp2385
I3
aI1
aI0
aI5
aI4
aI8
aI5
aI5
asS'armor'
p2386
F92.0
sS'hits'
p2387
I12
sS'getfuel'
p2388
(lp2389
I6
aI5
aI1
aI9
aI1
aI0
aI9
aI0
asS'state'
p2390
I1
sS'minarmor'
p2391
I99
sS'hitstilmating'
p2392
I4
sS'fuel'
p2393
F2772.0
sS'x'
p2394
I87
sS'ammo'
p2395
I89
sS'op'
p2396
I1
sba(iclasses
robot
p2397
(dp2398
S'y'
p2399
I297
sS'minfuel'
p2400
I1832
sS'ip'
p2401
I2
sS'gestation'
p2402
I0
sS'dead'
p2403
I0
sS'getammo'
p2404
(lp2405
I0
aI0
aI0
aI0
aI0
aI0
aI0
aI0
asS'heat'
p2406
I0
sS'mindist'
p2407
I263
sS'kill'
p2408
(lp2409
I9
aI3
aI2
aI4
aI4
aI4
aI2
aI5
asS'velocity'
p2410
I0
sS'partner'
p2411
S'EJY'
p2412
sS'offspring'
p2413
(iclasses
robot
p2414
(dp2415
S'y'
p2416
I15
sS'minfuel'
p2417
I1832
sS'ip'
p2418
I5
sS'hits'
p2419
I0
sg2403
I1
sS'getammo'
p2420
(lp2421
I0
aI0
aI0
aI0
aI0
aI0
aI0
aI0
asS'mindist'
p2422
I263
sS'kill'
p2423
g2409
sS'x'
p2424
I-1
sS'minammo'
p2425
I55
sS'search'
p2426
(lp2427
I5
aI1
aI7
aI5
aI3
aI9
aI5
aI2
asS'rotate'
p2428
I1
sS'name'
p2429
S'GREMEA'
p2430
sS'getarmor'
p2431
(lp2432
I3
aI1
aI0
aI5
aI4
aI8
aI5
aI5
asS'armor'
p2433
F0.0
sS'getfuel'
p2434
(lp2435
I6
aI5
aI1
aI9
aI1
aI0
aI9
aI0
asS'state'
p2436
I1
sS'minarmor'
p2437
I99
sS'hitstilmating'
p2438
I5
sS'fuel'
p2439
F3263.0
sS'velocity'
p2440
I-1
sS'ammo'
p2441
I100
sS'op'
p2442
I4
sbsS'minammo'
p2443
I55
sS'search'
p2444
(lp2445
I5
aI1
aI7
aI5
aI3
aI9
aI5
aI2
asS'rotate'
p2446
I2
sS'name'
p2447
S'PTIKT'
p2448
sS'getarmor'
p2449
(lp2450
I3
aI1
aI0
aI5
aI4
aI8
aI5
aI5
asS'armor'
p2451
F92.0
sS'hits'
p2452
I12
sS'getfuel'
p2453
(lp2454
I6
aI5
aI1
aI9
aI1
aI0
aI9
aI0
asS'state'
p2455
I1
sS'minarmor'
p2456
I99
sS'hitstilmating'
p2457
I4
sS'fuel'
p2458
F2772.0
sS'x'
p2459
I334
sS'ammo'
p2460
I89
sS'op'
p2461
I1
sbasg1331
I0
sg1332
(lp2462
sg1334
(lp2463
(ievotankclasses
door
p2464
(dp2465
g98
I1
sg99
I208
sg100
I576
sg101
I2
sg102
I0
sg103
I208
sba(ievotankclasses
door
p2466
(dp2467
g706
I0
sg19
I0
sg20
I281
sg707
I16
sg708
I281
sg709
I416
sbasg1340
I0
sg1341
I0
sbasb.