(ievotanklevels
level
p0
(dp1
S'music'
p2
S'sounds/crisis.ogg'
p3
sS'rooms'
p4
(lp5
(ievotanklevels
room
p6
(dp7
S'background'
p8
S'images/bg.png'
p9
sS'pickups'
p10
(lp11
sS'obstacles'
p12
(lp13
(ievotankclasses
obstacle
p14
(dp15
S'y'
p16
I76
sS'x'
p17
I-64
sS'obstacletypenum'
p18
I2
sba(ievotankclasses
obstacle
p19
(dp20
g16
I76
sg17
I-128
sg18
I2
sba(ievotankclasses
obstacle
p21
(dp22
g16
I310
sg17
I-74
sg18
I2
sba(ievotankclasses
obstacle
p23
(dp24
g16
I310
sg17
I-138
sg18
I2
sba(ievotankclasses
obstacle
p25
(dp26
g16
I310
sg17
I-202
sg18
I2
sba(ievotankclasses
obstacle
p27
(dp28
g16
I310
sg17
I-266
sg18
I2
sba(ievotankclasses
obstacle
p29
(dp30
g16
I310
sg17
I-330
sg18
I2
sba(ievotankclasses
obstacle
p31
(dp32
S'y'
p33
I417
sS'x'
p34
I0
sS'obstacletypenum'
p35
I2
sba(ievotankclasses
obstacle
p36
(dp37
g33
I353
sg34
I0
sg35
I2
sba(ievotankclasses
obstacle
p38
(dp39
g33
I289
sg34
I0
sg35
I2
sba(ievotankclasses
obstacle
p40
(dp41
g33
I419
sg34
I250
sg35
I2
sba(ievotankclasses
obstacle
p42
(dp43
g33
I419
sg34
I186
sg35
I2
sba(ievotankclasses
obstacle
p44
(dp45
g33
I419
sg34
I122
sg35
I2
sba(ievotankclasses
obstacle
p46
(dp47
g33
I419
sg34
I60
sg35
I2
sS'obstacletype'
p48
S'wall'
p49
sba(ievotankclasses
obstacle
p50
(dp51
g33
I268
sg34
I0
sg35
I2
sg48
g49
sba(ievotankclasses
obstacle
p52
(dp53
g33
I417
sg34
I577
sg35
I2
sba(ievotankclasses
obstacle
p54
(dp55
g33
I417
sg34
I513
sg35
I2
sba(ievotankclasses
obstacle
p56
(dp57
g33
I417
sg34
I449
sg35
I2
sba(ievotankclasses
obstacle
p58
(dp59
g33
I417
sg34
I385
sg35
I2
sba(ievotankclasses
obstacle
p60
(dp61
g33
I357
sg34
I576
sg35
I2
sba(ievotankclasses
obstacle
p62
(dp63
g33
I293
sg34
I576
sg35
I2
sba(ievotankclasses
obstacle
p64
(dp65
g33
I141
sg34
I576
sg35
I2
sba(ievotankclasses
obstacle
p66
(dp67
g33
I77
sg34
I576
sg35
I2
sba(ievotankclasses
obstacle
p68
(dp69
g33
I13
sg34
I576
sg35
I2
sba(ievotankclasses
obstacle
p70
(dp71
g33
I0
sg34
I575
sg35
I2
sba(ievotankclasses
obstacle
p72
(dp73
g33
I0
sg34
I511
sg35
I2
sba(ievotankclasses
obstacle
p74
(dp75
g33
I0
sg34
I447
sg35
I2
sba(ievotankclasses
obstacle
p76
(dp77
g33
I0
sg34
I383
sg35
I2
sbasS'robots'
p78
(lp79
sS'playerrotate'
p80
I0
sS'bullets'
p81
(lp82
sS'doors'
p83
(lp84
(ievotankclasses
door
p85
(dp86
S'rotate'
p87
I0
sS'y'
p88
I0
sS'x'
p89
I312
sS'to_room'
p90
I1
sS'to_x'
p91
I312
sS'to_y'
p92
I416
sba(ievotankclasses
door
p93
(dp94
g87
I1
sg88
I204
sg89
I576
sg90
I2
sg91
I0
sg92
I204
sba(ievotankclasses
door
p95
(dp96
g87
I2
sg88
I416
sg89
I314
sg90
I3
sg91
I314
sg92
I0
sba(ievotankclasses
door
p97
(dp98
g87
I3
sg88
I204
sg89
I0
sg90
I4
sg91
I576
sg92
I204
sbasS'playerx'
p99
I0
sS'playery'
p100
I0
sba(ievotanklevels
room
p101
(dp102
g8
g9
sg10
(lp103
sg12
(lp104
sg78
(lp105
sg80
I0
sg81
(lp106
sg83
(lp107
(ievotankclasses
door
p108
(dp109
g87
I2
sg88
I416
sg89
I312
sg90
I0
sg91
I312
sg92
I0
sbasg99
I0
sg100
I0
sba(ievotanklevels
room
p110
(dp111
g8
g9
sg10
(lp112
sg12
(lp113
sg78
(lp114
sg80
I0
sg81
(lp115
sg83
(lp116
(ievotankclasses
door
p117
(dp118
g87
I3
sg88
I204
sg89
I0
sg90
I0
sg91
I576
sg92
I204
sbasg99
I0
sg100
I0
sba(ievotanklevels
room
p119
(dp120
g8
g9
sg10
(lp121
sg12
(lp122
sg78
(lp123
sg80
I0
sg81
(lp124
sg83
(lp125
(ievotankclasses
door
p126
(dp127
g87
I0
sg88
I0
sg89
I314
sg90
I0
sg91
I314
sg92
I416
sbasg99
I0
sg100
I0
sba(ievotanklevels
room
p128
(dp129
g8
g9
sg10
(lp130
sg12
(lp131
sg78
(lp132
(ievotankclasses
robot
p133
(dp134
S'y'
p135
I364
sS'minfuel'
p136
I1832
sS'ip'
p137
I1
sS'hits'
p138
I5
sS'dead'
p139
I0
sS'getammo'
p140
(lp141
I4
aI4
aI3
aI3
aI6
aI6
aI8
aI4
asS'heat'
p142
I748
sS'mindist'
p143
I253
sS'kill'
p144
(lp145
I9
aI3
aI2
aI4
aI4
aI4
aI2
aI5
asS'velocity'
p146
I-3
sS'minammo'
p147
I55
sS'search'
p148
(lp149
I5
aI1
aI7
aI5
aI3
aI9
aI5
aI2
asS'rotate'
p150
I5
sS'name'
p151
S'EAT'
p152
sS'getarmor'
p153
(lp154
I3
aI2
aI3
aI5
aI2
aI8
aI8
aI5
asS'armor'
p155
F94.0
sS'getfuel'
p156
(lp157
I6
aI8
aI1
aI4
aI1
aI0
aI1
aI0
asS'minarmor'
p158
F58.0
sS'state'
p159
I2
sS'fuel'
p160
F1591.0
sS'x'
p161
I36
sS'ammo'
p162
I54
sS'op'
p163
I6
sbasg80
I0
sg81
(lp164
sg83
(lp165
(ievotankclasses
door
p166
(dp167
g87
I1
sg88
I204
sg89
I576
sg90
I0
sg91
I0
sg92
I204
sbasg99
I0
sg100
I0
sbasb.