(ievotanklevels
level
p0
(dp1
S'playerx'
p2
I292
sS'playery'
p3
I197
sS'music'
p4
S'sounds/breedingpit.ogg'
p5
sS'playerrotate'
p6
I4
sS'rooms'
p7
(lp8
(ievotanklevels
room
p9
(dp10
S'background'
p11
S'images/bg.png'
p12
sS'pickups'
p13
(lp14
(ievotankclasses
pickup
p15
(dp16
S'y'
p17
I176
sS'pickuptypenum'
p18
I1
sS'pickuptype'
p19
S'fuel'
p20
sS'x'
p21
I85
sba(ievotankclasses
pickup
p22
(dp23
g17
I176
sg18
I1
sg19
g20
sg21
I85
sba(ievotankclasses
pickup
p24
(dp25
g17
I176
sg18
I1
sg19
g20
sg21
I85
sba(ievotankclasses
pickup
p26
(dp27
g17
I176
sg18
I1
sg19
g20
sg21
I85
sba(ievotankclasses
pickup
p28
(dp29
g17
I176
sg18
I1
sg19
g20
sg21
I85
sba(ievotankclasses
pickup
p30
(dp31
g17
I176
sg18
I1
sg19
g20
sg21
I85
sba(ievotankclasses
pickup
p32
(dp33
g17
I176
sg18
I1
sg19
g20
sg21
I85
sba(ievotankclasses
pickup
p34
(dp35
g17
I176
sg18
I1
sg19
g20
sg21
I85
sba(ievotankclasses
pickup
p36
(dp37
g17
I176
sg18
I1
sg19
g20
sg21
I85
sba(ievotankclasses
pickup
p38
(dp39
g17
I225
sg18
I1
sg19
g20
sg21
I85
sba(ievotankclasses
pickup
p40
(dp41
g17
I225
sg18
I1
sg19
g20
sg21
I85
sba(ievotankclasses
pickup
p42
(dp43
g17
I225
sg18
I1
sg19
g20
sg21
I85
sba(ievotankclasses
pickup
p44
(dp45
g17
I225
sg18
I1
sg19
g20
sg21
I85
sba(ievotankclasses
pickup
p46
(dp47
g17
I225
sg18
I1
sg19
g20
sg21
I85
sba(ievotankclasses
pickup
p48
(dp49
g17
I225
sg18
I1
sg19
g20
sg21
I85
sba(ievotankclasses
pickup
p50
(dp51
g17
I243
sg18
I1
sg19
g20
sg21
I114
sba(ievotankclasses
pickup
p52
(dp53
g17
I243
sg18
I1
sg19
g20
sg21
I114
sba(ievotankclasses
pickup
p54
(dp55
g17
I243
sg18
I1
sg19
g20
sg21
I114
sba(ievotankclasses
pickup
p56
(dp57
g17
I243
sg18
I1
sg19
g20
sg21
I114
sba(ievotankclasses
pickup
p58
(dp59
g17
I243
sg18
I1
sg19
g20
sg21
I114
sba(ievotankclasses
pickup
p60
(dp61
g17
I253
sg18
I0
sg19
S'armor'
p62
sg21
I548
sba(ievotankclasses
pickup
p63
(dp64
g17
I253
sg18
I0
sg19
g62
sg21
I548
sba(ievotankclasses
pickup
p65
(dp66
g17
I253
sg18
I0
sg19
g62
sg21
I548
sba(ievotankclasses
pickup
p67
(dp68
g17
I239
sg18
I0
sg19
g62
sg21
I580
sba(ievotankclasses
pickup
p69
(dp70
g17
I239
sg18
I0
sg19
g62
sg21
I580
sba(ievotankclasses
pickup
p71
(dp72
g17
I205
sg18
I0
sg19
g62
sg21
I580
sba(ievotankclasses
pickup
p73
(dp74
g17
I205
sg18
I0
sg19
g62
sg21
I580
sba(ievotankclasses
pickup
p75
(dp76
g17
I205
sg18
I0
sg19
g62
sg21
I580
sbasS'obstacles'
p77
(lp78
(ievotankclasses
obstacle
p79
(dp80
g17
I152
sg21
I200
sS'obstacletypenum'
p81
I0
sS'obstacletype'
p82
S'barrel'
p83
sba(ievotankclasses
obstacle
p84
(dp85
g17
I152
sg21
I200
sg81
I0
sg82
g83
sba(ievotankclasses
obstacle
p86
(dp87
g17
I152
sg21
I200
sg81
I0
sg82
g83
sba(ievotankclasses
obstacle
p88
(dp89
g17
I152
sg21
I200
sg81
I0
sg82
g83
sba(ievotankclasses
obstacle
p90
(dp91
g17
I152
sg21
I200
sg81
I0
sg82
g83
sba(ievotankclasses
obstacle
p92
(dp93
g17
I152
sg21
I200
sg81
I0
sg82
g83
sba(ievotankclasses
obstacle
p94
(dp95
g17
I152
sg21
I200
sg81
I0
sg82
g83
sba(ievotankclasses
obstacle
p96
(dp97
g17
I152
sg21
I200
sg81
I0
sg82
g83
sba(ievotankclasses
obstacle
p98
(dp99
g17
I152
sg21
I200
sg81
I0
sg82
g83
sba(ievotankclasses
obstacle
p100
(dp101
g17
I152
sg21
I200
sg81
I0
sg82
g83
sba(ievotankclasses
obstacle
p102
(dp103
g17
I152
sg21
I200
sg81
I0
sg82
g83
sba(ievotankclasses
obstacle
p104
(dp105
g17
I152
sg21
I200
sg81
I0
sg82
g83
sba(ievotankclasses
obstacle
p106
(dp107
g17
I152
sg21
I200
sg81
I0
sg82
g83
sba(ievotankclasses
obstacle
p108
(dp109
g17
I152
sg21
I200
sg81
I0
sg82
g83
sba(ievotankclasses
obstacle
p110
(dp111
g17
I180
sg21
I200
sg81
I0
sg82
g83
sba(ievotankclasses
obstacle
p112
(dp113
g17
I180
sg21
I200
sg81
I0
sg82
g83
sba(ievotankclasses
obstacle
p114
(dp115
g17
I180
sg21
I200
sg81
I0
sg82
g83
sba(ievotankclasses
obstacle
p116
(dp117
g17
I180
sg21
I200
sg81
I0
sg82
g83
sba(ievotankclasses
obstacle
p118
(dp119
g17
I180
sg21
I200
sg81
I0
sg82
g83
sba(ievotankclasses
obstacle
p120
(dp121
g17
I180
sg21
I200
sg81
I0
sg82
g83
sba(ievotankclasses
obstacle
p122
(dp123
g17
I180
sg21
I200
sg81
I0
sg82
g83
sba(ievotankclasses
obstacle
p124
(dp125
g17
I180
sg21
I200
sg81
I0
sg82
g83
sba(ievotankclasses
obstacle
p126
(dp127
g17
I180
sg21
I200
sg81
I0
sg82
g83
sba(ievotankclasses
obstacle
p128
(dp129
g17
I180
sg21
I200
sg81
I0
sg82
g83
sba(ievotankclasses
obstacle
p130
(dp131
g17
I210
sg21
I199
sg81
I0
sg82
g83
sba(ievotankclasses
obstacle
p132
(dp133
g17
I210
sg21
I199
sg81
I0
sg82
g83
sba(ievotankclasses
obstacle
p134
(dp135
g17
I210
sg21
I199
sg81
I0
sg82
g83
sba(ievotankclasses
obstacle
p136
(dp137
g17
I210
sg21
I199
sg81
I0
sg82
g83
sba(ievotankclasses
obstacle
p138
(dp139
g17
I210
sg21
I199
sg81
I0
sg82
g83
sba(ievotankclasses
obstacle
p140
(dp141
g17
I210
sg21
I199
sg81
I0
sg82
g83
sba(ievotankclasses
obstacle
p142
(dp143
g17
I210
sg21
I199
sg81
I0
sg82
g83
sba(ievotankclasses
obstacle
p144
(dp145
g17
I210
sg21
I199
sg81
I0
sg82
g83
sba(ievotankclasses
obstacle
p146
(dp147
g17
I210
sg21
I199
sg81
I0
sg82
g83
sba(ievotankclasses
obstacle
p148
(dp149
g17
I210
sg21
I199
sg81
I0
sg82
g83
sba(ievotankclasses
obstacle
p150
(dp151
g17
I210
sg21
I199
sg81
I0
sg82
g83
sba(ievotankclasses
obstacle
p152
(dp153
g17
I239
sg21
I199
sg81
I0
sg82
g83
sba(ievotankclasses
obstacle
p154
(dp155
g17
I239
sg21
I199
sg81
I0
sg82
g83
sba(ievotankclasses
obstacle
p156
(dp157
g17
I239
sg21
I199
sg81
I0
sg82
g83
sba(ievotankclasses
obstacle
p158
(dp159
g17
I239
sg21
I199
sg81
I0
sg82
g83
sba(ievotankclasses
obstacle
p160
(dp161
g17
I239
sg21
I199
sg81
I0
sg82
g83
sba(ievotankclasses
obstacle
p162
(dp163
g17
I239
sg21
I199
sg81
I0
sg82
g83
sba(ievotankclasses
obstacle
p164
(dp165
g17
I239
sg21
I199
sg81
I0
sg82
g83
sba(ievotankclasses
obstacle
p166
(dp167
g17
I239
sg21
I199
sg81
I0
sg82
g83
sba(ievotankclasses
obstacle
p168
(dp169
g17
I239
sg21
I199
sg81
I0
sg82
g83
sba(ievotankclasses
obstacle
p170
(dp171
g17
I239
sg21
I199
sg81
I0
sg82
g83
sba(ievotankclasses
obstacle
p172
(dp173
g17
I268
sg21
I199
sg81
I0
sg82
g83
sba(ievotankclasses
obstacle
p174
(dp175
g17
I268
sg21
I199
sg81
I0
sg82
g83
sba(ievotankclasses
obstacle
p176
(dp177
g17
I268
sg21
I199
sg81
I0
sg82
g83
sba(ievotankclasses
obstacle
p178
(dp179
g17
I268
sg21
I199
sg81
I0
sg82
g83
sba(ievotankclasses
obstacle
p180
(dp181
g17
I268
sg21
I199
sg81
I0
sg82
g83
sba(ievotankclasses
obstacle
p182
(dp183
g17
I268
sg21
I199
sg81
I0
sg82
g83
sba(ievotankclasses
obstacle
p184
(dp185
g17
I268
sg21
I199
sg81
I0
sg82
g83
sba(ievotankclasses
obstacle
p186
(dp187
g17
I268
sg21
I199
sg81
I0
sg82
g83
sba(ievotankclasses
obstacle
p188
(dp189
g17
I268
sg21
I168
sg81
I0
sg82
g83
sba(ievotankclasses
obstacle
p190
(dp191
g17
I268
sg21
I168
sg81
I0
sg82
g83
sba(ievotankclasses
obstacle
p192
(dp193
g17
I268
sg21
I168
sg81
I0
sg82
g83
sba(ievotankclasses
obstacle
p194
(dp195
g17
I268
sg21
I168
sg81
I0
sg82
g83
sba(ievotankclasses
obstacle
p196
(dp197
g17
I268
sg21
I168
sg81
I0
sg82
g83
sba(ievotankclasses
obstacle
p198
(dp199
g17
I268
sg21
I168
sg81
I0
sg82
g83
sba(ievotankclasses
obstacle
p200
(dp201
g17
I268
sg21
I168
sg81
I0
sg82
g83
sba(ievotankclasses
obstacle
p202
(dp203
g17
I268
sg21
I168
sg81
I0
sg82
g83
sba(ievotankclasses
obstacle
p204
(dp205
g17
I268
sg21
I168
sg81
I0
sg82
g83
sba(ievotankclasses
obstacle
p206
(dp207
g17
I268
sg21
I168
sg81
I0
sg82
g83
sba(ievotankclasses
obstacle
p208
(dp209
g17
I268
sg21
I137
sg81
I0
sg82
g83
sba(ievotankclasses
obstacle
p210
(dp211
g17
I268
sg21
I137
sg81
I0
sg82
g83
sba(ievotankclasses
obstacle
p212
(dp213
g17
I268
sg21
I137
sg81
I0
sg82
g83
sba(ievotankclasses
obstacle
p214
(dp215
g17
I268
sg21
I137
sg81
I0
sg82
g83
sba(ievotankclasses
obstacle
p216
(dp217
g17
I268
sg21
I137
sg81
I0
sg82
g83
sba(ievotankclasses
obstacle
p218
(dp219
g17
I268
sg21
I137
sg81
I0
sg82
g83
sba(ievotankclasses
obstacle
p220
(dp221
g17
I268
sg21
I137
sg81
I0
sg82
g83
sba(ievotankclasses
obstacle
p222
(dp223
g17
I268
sg21
I137
sg81
I0
sg82
g83
sba(ievotankclasses
obstacle
p224
(dp225
g17
I268
sg21
I137
sg81
I0
sg82
g83
sba(ievotankclasses
obstacle
p226
(dp227
g17
I268
sg21
I137
sg81
I0
sg82
g83
sba(ievotankclasses
obstacle
p228
(dp229
g17
I268
sg21
I137
sg81
I0
sg82
g83
sba(ievotankclasses
obstacle
p230
(dp231
g17
I268
sg21
I105
sg81
I0
sg82
g83
sba(ievotankclasses
obstacle
p232
(dp233
g17
I268
sg21
I105
sg81
I0
sg82
g83
sba(ievotankclasses
obstacle
p234
(dp235
g17
I268
sg21
I105
sg81
I0
sg82
g83
sba(ievotankclasses
obstacle
p236
(dp237
g17
I268
sg21
I105
sg81
I0
sg82
g83
sba(ievotankclasses
obstacle
p238
(dp239
g17
I268
sg21
I105
sg81
I0
sg82
g83
sba(ievotankclasses
obstacle
p240
(dp241
g17
I268
sg21
I105
sg81
I0
sg82
g83
sba(ievotankclasses
obstacle
p242
(dp243
g17
I268
sg21
I105
sg81
I0
sg82
g83
sba(ievotankclasses
obstacle
p244
(dp245
g17
I268
sg21
I105
sg81
I0
sg82
g83
sba(ievotankclasses
obstacle
p246
(dp247
g17
I268
sg21
I105
sg81
I0
sg82
g83
sba(ievotankclasses
obstacle
p248
(dp249
g17
I268
sg21
I105
sg81
I0
sg82
g83
sba(ievotankclasses
obstacle
p250
(dp251
g17
I152
sg21
I170
sg81
I0
sg82
g83
sba(ievotankclasses
obstacle
p252
(dp253
g17
I152
sg21
I170
sg81
I0
sg82
g83
sba(ievotankclasses
obstacle
p254
(dp255
g17
I152
sg21
I170
sg81
I0
sg82
g83
sba(ievotankclasses
obstacle
p256
(dp257
g17
I152
sg21
I170
sg81
I0
sg82
g83
sba(ievotankclasses
obstacle
p258
(dp259
g17
I152
sg21
I170
sg81
I0
sg82
g83
sba(ievotankclasses
obstacle
p260
(dp261
g17
I152
sg21
I170
sg81
I0
sg82
g83
sba(ievotankclasses
obstacle
p262
(dp263
g17
I152
sg21
I170
sg81
I0
sg82
g83
sba(ievotankclasses
obstacle
p264
(dp265
g17
I152
sg21
I170
sg81
I0
sg82
g83
sba(ievotankclasses
obstacle
p266
(dp267
g17
I152
sg21
I170
sg81
I0
sg82
g83
sba(ievotankclasses
obstacle
p268
(dp269
g17
I152
sg21
I170
sg81
I0
sg82
g83
sba(ievotankclasses
obstacle
p270
(dp271
g17
I152
sg21
I170
sg81
I0
sg82
g83
sba(ievotankclasses
obstacle
p272
(dp273
g17
I152
sg21
I170
sg81
I0
sg82
g83
sba(ievotankclasses
obstacle
p274
(dp275
g17
I152
sg21
I170
sg81
I0
sg82
g83
sba(ievotankclasses
obstacle
p276
(dp277
g17
I152
sg21
I170
sg81
I0
sg82
g83
sba(ievotankclasses
obstacle
p278
(dp279
g17
I152
sg21
I140
sg81
I0
sg82
g83
sba(ievotankclasses
obstacle
p280
(dp281
g17
I152
sg21
I140
sg81
I0
sg82
g83
sba(ievotankclasses
obstacle
p282
(dp283
g17
I152
sg21
I140
sg81
I0
sg82
g83
sba(ievotankclasses
obstacle
p284
(dp285
g17
I152
sg21
I140
sg81
I0
sg82
g83
sba(ievotankclasses
obstacle
p286
(dp287
g17
I151
sg21
I109
sg81
I0
sg82
g83
sba(ievotankclasses
obstacle
p288
(dp289
g17
I151
sg21
I109
sg81
I0
sg82
g83
sba(ievotankclasses
obstacle
p290
(dp291
g17
I151
sg21
I109
sg81
I0
sg82
g83
sba(ievotankclasses
obstacle
p292
(dp293
g17
I151
sg21
I109
sg81
I0
sg82
g83
sba(ievotankclasses
obstacle
p294
(dp295
g17
I151
sg21
I109
sg81
I0
sg82
g83
sba(ievotankclasses
obstacle
p296
(dp297
g17
I151
sg21
I109
sg81
I0
sg82
g83
sba(ievotankclasses
obstacle
p298
(dp299
g17
I151
sg21
I109
sg81
I0
sg82
g83
sba(ievotankclasses
obstacle
p300
(dp301
g17
I151
sg21
I109
sg81
I0
sg82
g83
sba(ievotankclasses
obstacle
p302
(dp303
g17
I151
sg21
I109
sg81
I0
sg82
g83
sba(ievotankclasses
obstacle
p304
(dp305
g17
I151
sg21
I109
sg81
I0
sg82
g83
sba(ievotankclasses
obstacle
p306
(dp307
g17
I151
sg21
I109
sg81
I0
sg82
g83
sba(ievotankclasses
obstacle
p308
(dp309
g17
I151
sg21
I109
sg81
I0
sg82
g83
sba(ievotankclasses
obstacle
p310
(dp311
g17
I179
sg21
I109
sg81
I0
sg82
g83
sba(ievotankclasses
obstacle
p312
(dp313
g17
I179
sg21
I109
sg81
I0
sg82
g83
sba(ievotankclasses
obstacle
p314
(dp315
g17
I179
sg21
I109
sg81
I0
sg82
g83
sba(ievotankclasses
obstacle
p316
(dp317
g17
I179
sg21
I109
sg81
I0
sg82
g83
sba(ievotankclasses
obstacle
p318
(dp319
g17
I179
sg21
I109
sg81
I0
sg82
g83
sba(ievotankclasses
obstacle
p320
(dp321
g17
I179
sg21
I109
sg81
I0
sg82
g83
sba(ievotankclasses
obstacle
p322
(dp323
g17
I272
sg21
I449
sg81
I0
sg82
g83
sba(ievotankclasses
obstacle
p324
(dp325
g17
I272
sg21
I449
sg81
I0
sg82
g83
sba(ievotankclasses
obstacle
p326
(dp327
g17
I243
sg21
I449
sg81
I0
sg82
g83
sba(ievotankclasses
obstacle
p328
(dp329
g17
I214
sg21
I449
sg81
I0
sg82
g83
sba(ievotankclasses
obstacle
p330
(dp331
g17
I214
sg21
I449
sg81
I0
sg82
g83
sba(ievotankclasses
obstacle
p332
(dp333
g17
I214
sg21
I449
sg81
I0
sg82
g83
sba(ievotankclasses
obstacle
p334
(dp335
g17
I187
sg21
I449
sg81
I0
sg82
g83
sba(ievotankclasses
obstacle
p336
(dp337
g17
I187
sg21
I449
sg81
I0
sg82
g83
sba(ievotankclasses
obstacle
p338
(dp339
g17
I160
sg21
I450
sg81
I0
sg82
g83
sba(ievotankclasses
obstacle
p340
(dp341
g17
I160
sg21
I450
sg81
I0
sg82
g83
sba(ievotankclasses
obstacle
p342
(dp343
g17
I161
sg21
I478
sg81
I0
sg82
g83
sba(ievotankclasses
obstacle
p344
(dp345
g17
I161
sg21
I478
sg81
I0
sg82
g83
sba(ievotankclasses
obstacle
p346
(dp347
g17
I162
sg21
I510
sg81
I0
sg82
g83
sba(ievotankclasses
obstacle
p348
(dp349
g17
I162
sg21
I510
sg81
I0
sg82
g83
sba(ievotankclasses
obstacle
p350
(dp351
g17
I162
sg21
I510
sg81
I0
sg82
g83
sba(ievotankclasses
obstacle
p352
(dp353
g17
I163
sg21
I541
sg81
I0
sg82
g83
sba(ievotankclasses
obstacle
p354
(dp355
g17
I163
sg21
I541
sg81
I0
sg82
g83
sba(ievotankclasses
obstacle
p356
(dp357
g17
I191
sg21
I541
sg81
I0
sg82
g83
sba(ievotankclasses
obstacle
p358
(dp359
g17
I273
sg21
I478
sg81
I0
sg82
g83
sba(ievotankclasses
obstacle
p360
(dp361
g17
I273
sg21
I478
sg81
I0
sg82
g83
sba(ievotankclasses
obstacle
p362
(dp363
g17
I274
sg21
I509
sg81
I0
sg82
g83
sba(ievotankclasses
obstacle
p364
(dp365
g17
I274
sg21
I509
sg81
I0
sg82
g83
sba(ievotankclasses
obstacle
p366
(dp367
g17
I274
sg21
I541
sg81
I0
sg82
g83
sba(ievotankclasses
obstacle
p368
(dp369
g17
I274
sg21
I541
sg81
I0
sg82
g83
sbasS'robots'
p370
(lp371
(ievotankclasses
robot
p372
(dp373
S'y'
p374
I188
sS'minfuel'
p375
I1687
sS'ip'
p376
I5
sS'hits'
p377
I1
sS'dead'
p378
I0
sS'getammo'
p379
(lp380
I1
aI4
aI3
aI3
aI6
aI6
aI8
aI9
asS'heat'
p381
I-401
sS'mindist'
p382
I193
sS'kill'
p383
(lp384
I9
aI3
aI2
aI1
aI4
aI1
aI4
aI5
asS'x'
p385
I140
sS'minammo'
p386
I50
sS'search'
p387
(lp388
I9
aI4
aI7
aI4
aI5
aI9
aI5
aI2
asS'rotate'
p389
I1
sS'name'
p390
S'CICTE'
p391
sS'getarmor'
p392
(lp393
I0
aI4
aI3
aI5
aI2
aI8
aI6
aI3
asS'armor'
p394
F72.0
sS'getfuel'
p395
(lp396
I6
aI7
aI4
aI4
aI1
aI0
aI1
aI0
asS'minarmor'
p397
I100
sS'state'
p398
I1
sS'fuel'
p399
F3800.0
sS'velocity'
p400
I5
sS'ammo'
p401
I94
sS'op'
p402
I2
sba(ievotankclasses
robot
p403
(dp404
S'y'
p405
I198
sS'minfuel'
p406
I1832
sS'ip'
p407
I1
sS'hits'
p408
I5
sS'dead'
p409
I0
sS'getammo'
p410
(lp411
I4
aI4
aI3
aI3
aI6
aI6
aI8
aI4
asS'heat'
p412
I748
sS'mindist'
p413
I253
sS'kill'
p414
(lp415
I9
aI3
aI2
aI4
aI4
aI4
aI2
aI5
asS'velocity'
p416
I-3
sS'minammo'
p417
I55
sS'search'
p418
(lp419
I5
aI1
aI7
aI5
aI3
aI9
aI5
aI2
asS'rotate'
p420
I7
sS'name'
p421
S'EAT'
p422
sS'getarmor'
p423
(lp424
I3
aI2
aI3
aI5
aI2
aI8
aI8
aI5
asS'armor'
p425
F94.0
sS'getfuel'
p426
(lp427
I6
aI8
aI1
aI4
aI1
aI0
aI1
aI0
asS'minarmor'
p428
F58.0
sS'state'
p429
I2
sS'fuel'
p430
F1591.0
sS'x'
p431
I477
sS'ammo'
p432
I54
sS'op'
p433
I6
sbasg6
I0
sS'bullets'
p434
(lp435
sS'doors'
p436
(lp437
(ievotankclasses
door
p438
(dp439
S'rotate'
p440
I0
sg17
I0
sg21
I293
sS'to_room'
p441
I1
sS'to_x'
p442
I320
sS'to_y'
p443
I480
sba(ievotankclasses
door
p444
(dp445
g440
I3
sg17
I186
sg21
I0
sg441
I2
sg442
I640
sg443
I240
sbasg2
I0
sg3
I0
sba(ievotanklevels
room
p446
(dp447
g11
g12
sg13
(lp448
(ievotankclasses
pickup
p449
(dp450
g17
I252
sg18
I2
sg19
S'ammo'
p451
sg21
I311
sba(ievotankclasses
pickup
p452
(dp453
g17
I252
sg18
I2
sg19
g451
sg21
I311
sba(ievotankclasses
pickup
p454
(dp455
g17
I252
sg18
I2
sg19
g451
sg21
I311
sba(ievotankclasses
pickup
p456
(dp457
g17
I252
sg18
I2
sg19
g451
sg21
I311
sba(ievotankclasses
pickup
p458
(dp459
g17
I252
sg18
I2
sg19
g451
sg21
I311
sba(ievotankclasses
pickup
p460
(dp461
g17
I252
sg18
I2
sg19
g451
sg21
I311
sba(ievotankclasses
pickup
p462
(dp463
g17
I252
sg18
I2
sg19
g451
sg21
I286
sba(ievotankclasses
pickup
p464
(dp465
g17
I252
sg18
I2
sg19
g451
sg21
I286
sba(ievotankclasses
pickup
p466
(dp467
g17
I252
sg18
I2
sg19
g451
sg21
I286
sba(ievotankclasses
pickup
p468
(dp469
g17
I252
sg18
I2
sg19
g451
sg21
I286
sba(ievotankclasses
pickup
p470
(dp471
g17
I252
sg18
I2
sg19
g451
sg21
I286
sba(ievotankclasses
pickup
p472
(dp473
g17
I252
sg18
I2
sg19
g451
sg21
I286
sba(ievotankclasses
pickup
p474
(dp475
g17
I252
sg18
I2
sg19
g451
sg21
I286
sba(ievotankclasses
pickup
p476
(dp477
g17
I252
sg18
I2
sg19
g451
sg21
I286
sba(ievotankclasses
pickup
p478
(dp479
g17
I253
sg18
I2
sg19
g451
sg21
I257
sba(ievotankclasses
pickup
p480
(dp481
g17
I253
sg18
I2
sg19
g451
sg21
I257
sba(ievotankclasses
pickup
p482
(dp483
g17
I253
sg18
I2
sg19
g451
sg21
I257
sba(ievotankclasses
pickup
p484
(dp485
g17
I253
sg18
I2
sg19
g451
sg21
I257
sba(ievotankclasses
pickup
p486
(dp487
g17
I253
sg18
I2
sg19
g451
sg21
I257
sba(ievotankclasses
pickup
p488
(dp489
g17
I253
sg18
I2
sg19
g451
sg21
I257
sba(ievotankclasses
pickup
p490
(dp491
g17
I253
sg18
I2
sg19
g451
sg21
I257
sba(ievotankclasses
pickup
p492
(dp493
g17
I253
sg18
I2
sg19
g451
sg21
I257
sba(ievotankclasses
pickup
p494
(dp495
g17
I220
sg18
I0
sg19
g62
sg21
I286
sba(ievotankclasses
pickup
p496
(dp497
g17
I220
sg18
I0
sg19
g62
sg21
I286
sba(ievotankclasses
pickup
p498
(dp499
g17
I220
sg18
I0
sg19
g62
sg21
I286
sba(ievotankclasses
pickup
p500
(dp501
g17
I220
sg18
I0
sg19
g62
sg21
I286
sba(ievotankclasses
pickup
p502
(dp503
g17
I220
sg18
I0
sg19
g62
sg21
I286
sba(ievotankclasses
pickup
p504
(dp505
g17
I220
sg18
I0
sg19
g62
sg21
I286
sba(ievotankclasses
pickup
p506
(dp507
g17
I220
sg18
I0
sg19
g62
sg21
I286
sba(ievotankclasses
pickup
p508
(dp509
g17
I220
sg18
I0
sg19
g62
sg21
I286
sba(ievotankclasses
pickup
p510
(dp511
g17
I193
sg18
I1
sg19
g20
sg21
I256
sba(ievotankclasses
pickup
p512
(dp513
g17
I193
sg18
I1
sg19
g20
sg21
I256
sba(ievotankclasses
pickup
p514
(dp515
g17
I193
sg18
I1
sg19
g20
sg21
I256
sba(ievotankclasses
pickup
p516
(dp517
g17
I193
sg18
I1
sg19
g20
sg21
I256
sba(ievotankclasses
pickup
p518
(dp519
g17
I193
sg18
I1
sg19
g20
sg21
I256
sba(ievotankclasses
pickup
p520
(dp521
g17
I191
sg18
I1
sg19
g20
sg21
I284
sba(ievotankclasses
pickup
p522
(dp523
g17
I191
sg18
I1
sg19
g20
sg21
I284
sba(ievotankclasses
pickup
p524
(dp525
g17
I191
sg18
I1
sg19
g20
sg21
I284
sba(ievotankclasses
pickup
p526
(dp527
g17
I191
sg18
I1
sg19
g20
sg21
I284
sba(ievotankclasses
pickup
p528
(dp529
g17
I191
sg18
I1
sg19
g20
sg21
I284
sba(ievotankclasses
pickup
p530
(dp531
g17
I192
sg18
I1
sg19
g20
sg21
I311
sba(ievotankclasses
pickup
p532
(dp533
g17
I192
sg18
I1
sg19
g20
sg21
I311
sba(ievotankclasses
pickup
p534
(dp535
g17
I192
sg18
I1
sg19
g20
sg21
I311
sba(ievotankclasses
pickup
p536
(dp537
g17
I192
sg18
I1
sg19
g20
sg21
I311
sba(ievotankclasses
pickup
p538
(dp539
g17
I192
sg18
I1
sg19
g20
sg21
I311
sbasg77
(lp540
sg370
(lp541
(ievotankclasses
robot
p542
(dp543
S'y'
p544
I425
sS'minfuel'
p545
I1832
sS'ip'
p546
I1
sS'hits'
p547
I5
sS'dead'
p548
I0
sS'getammo'
p549
(lp550
I4
aI4
aI3
aI3
aI6
aI6
aI8
aI4
asS'heat'
p551
I748
sS'mindist'
p552
I253
sS'kill'
p553
(lp554
I9
aI3
aI2
aI4
aI4
aI4
aI2
aI5
asS'velocity'
p555
I-3
sS'minammo'
p556
I55
sS'search'
p557
(lp558
I5
aI1
aI7
aI5
aI3
aI9
aI5
aI2
asS'rotate'
p559
I2
sS'name'
p560
S'EAT'
p561
sS'getarmor'
p562
(lp563
I3
aI2
aI3
aI5
aI2
aI8
aI8
aI5
asS'armor'
p564
F94.0
sS'getfuel'
p565
(lp566
I6
aI8
aI1
aI4
aI1
aI0
aI1
aI0
asS'minarmor'
p567
F58.0
sS'state'
p568
I2
sS'fuel'
p569
F1591.0
sS'x'
p570
I82
sS'ammo'
p571
I54
sS'op'
p572
I6
sbasg6
I0
sg434
(lp573
sg436
(lp574
(ievotankclasses
door
p575
(dp576
g440
I2
sg17
I418
sg21
I279
sg441
I0
sg442
I320
sg443
I0
sba(ievotankclasses
door
p577
(dp578
g440
I3
sg17
I158
sg21
I0
sg441
I3
sg442
I640
sg443
I240
sbasg2
I0
sg3
I0
sba(ievotanklevels
room
p579
(dp580
g11
g12
sg13
(lp581
sg77
(lp582
sg370
(lp583
sg6
I0
sg434
(lp584
sg436
(lp585
(ievotankclasses
door
p586
(dp587
g440
I1
sg17
I235
sg21
I576
sg441
I0
sg442
I0
sg443
I240
sba(ievotankclasses
door
p588
(dp589
g440
I0
sg17
I0
sg21
I277
sg441
I3
sg442
I320
sg443
I480
sbasg2
I0
sg3
I0
sba(ievotanklevels
room
p590
(dp591
g11
g12
sg13
(lp592
sg77
(lp593
sg370
(lp594
sg6
I0
sg434
(lp595
sg436
(lp596
(ievotankclasses
door
p597
(dp598
g440
I2
sg17
I416
sg21
I278
sg441
I1
sg442
I320
sg443
I0
sba(ievotankclasses
door
p599
(dp600
g440
I1
sg17
I210
sg21
I577
sg441
I1
sg442
I0
sg443
I240
sbasg2
I0
sg3
I0
sbasb.